
kernel：     文件格式 elf32-i386


Disassembly of section .text:

00100000 <glb_mboot_hdr>:
  100000:	02 b0 ad 1b 03 00 00 00 fb 4f 52 e4 00 00 00 00     .........OR.....
	...
  100030:	66 90 66 90 66 90 66 90 66 90 66 90 66 90 66 90     f.f.f.f.f.f.f.f.
  100040:	66 90 66 90 66 90 66 90 66 90 66 90 66 90 66 90     f.f.f.f.f.f.f.f.
  100050:	66 90 66 90 66 90 66 90 66 90 66 90 66 90 66 90     f.f.f.f.f.f.f.f.
  100060:	66 90 66 90 66 90 66 90 66 90 66 90 66 90 66 90     f.f.f.f.f.f.f.f.
  100070:	66 90 66 90 66 90 66 90 66 90 66 90 66 90 66 90     f.f.f.f.f.f.f.f.
  100080:	66 90 66 90 66 90 66 90 66 90 66 90 66 90 66 90     f.f.f.f.f.f.f.f.
  100090:	66 90 66 90 66 90 66 90 66 90 66 90 66 90 66 90     f.f.f.f.f.f.f.f.
  1000a0:	66 90 66 90 66 90 66 90 66 90 66 90 66 90 66 90     f.f.f.f.f.f.f.f.
  1000b0:	66 90 66 90 66 90 66 90 66 90 66 90 66 90 66 90     f.f.f.f.f.f.f.f.
  1000c0:	66 90 66 90 66 90 66 90 66 90 66 90 66 90 66 90     f.f.f.f.f.f.f.f.
  1000d0:	66 90 66 90 66 90 66 90 66 90 66 90 66 90 66 90     f.f.f.f.f.f.f.f.
  1000e0:	66 90 66 90 66 90 66 90 66 90 66 90 66 90 66 90     f.f.f.f.f.f.f.f.
  1000f0:	66 90 66 90 66 90 66 90 66 90 66 90 66 90 66 90     f.f.f.f.f.f.f.f.
  100100:	66 90 66 90 66 90 66 90 66 90 66 90 66 90 66 90     f.f.f.f.f.f.f.f.
  100110:	66 90 66 90 66 90 66 90 66 90 66 90 66 90 66 90     f.f.f.f.f.f.f.f.
  100120:	66 90 66 90 66 90 66 90 66 90 66 90 66 90 66 90     f.f.f.f.f.f.f.f.
  100130:	66 90 66 90 66 90 66 90 66 90 66 90 66 90 66 90     f.f.f.f.f.f.f.f.
  100140:	66 90 66 90 66 90 66 90 66 90 66 90 66 90 66 90     f.f.f.f.f.f.f.f.
  100150:	66 90 66 90 66 90 66 90 66 90 66 90 66 90 66 90     f.f.f.f.f.f.f.f.
  100160:	66 90 66 90 66 90 66 90 66 90 66 90 66 90 66 90     f.f.f.f.f.f.f.f.
  100170:	66 90 66 90 66 90 66 90 66 90 66 90 66 90 66 90     f.f.f.f.f.f.f.f.
  100180:	66 90 66 90 66 90 66 90 66 90 66 90 66 90 66 90     f.f.f.f.f.f.f.f.
  100190:	66 90 66 90 66 90 66 90 66 90 66 90 66 90 66 90     f.f.f.f.f.f.f.f.
  1001a0:	66 90 66 90 66 90 66 90 66 90 66 90 66 90 66 90     f.f.f.f.f.f.f.f.
  1001b0:	66 90 66 90 66 90 66 90 66 90 66 90 66 90 66 90     f.f.f.f.f.f.f.f.
  1001c0:	66 90 66 90 66 90 66 90 66 90 66 90 66 90 66 90     f.f.f.f.f.f.f.f.
  1001d0:	66 90 66 90 66 90 66 90 66 90 66 90 66 90 66 90     f.f.f.f.f.f.f.f.
  1001e0:	66 90 66 90 66 90 66 90 66 90 66 90 66 90 66 90     f.f.f.f.f.f.f.f.
  1001f0:	66 90 66 90 66 90 66 90 66 90 66 90 66 90 66 90     f.f.f.f.f.f.f.f.
  100200:	66 90 66 90 66 90 66 90 66 90 66 90 66 90 66 90     f.f.f.f.f.f.f.f.
  100210:	66 90 66 90 66 90 66 90 66 90 66 90 66 90 66 90     f.f.f.f.f.f.f.f.
  100220:	66 90 66 90 66 90 66 90 66 90 66 90 66 90 66 90     f.f.f.f.f.f.f.f.
  100230:	66 90 66 90 66 90 66 90 66 90 66 90 66 90 66 90     f.f.f.f.f.f.f.f.
  100240:	66 90 66 90 66 90 66 90 66 90 66 90 66 90 66 90     f.f.f.f.f.f.f.f.
  100250:	66 90 66 90 66 90 66 90 66 90 66 90 66 90 66 90     f.f.f.f.f.f.f.f.
  100260:	66 90 66 90 66 90 66 90 66 90 66 90 66 90 66 90     f.f.f.f.f.f.f.f.
  100270:	66 90 66 90 66 90 66 90 66 90 66 90 66 90 66 90     f.f.f.f.f.f.f.f.
  100280:	66 90 66 90 66 90 66 90 66 90 66 90 66 90 66 90     f.f.f.f.f.f.f.f.
  100290:	66 90 66 90 66 90 66 90 66 90 66 90 66 90 66 90     f.f.f.f.f.f.f.f.
  1002a0:	66 90 66 90 66 90 66 90 66 90 66 90 66 90 66 90     f.f.f.f.f.f.f.f.
  1002b0:	66 90 66 90 66 90 66 90 66 90 66 90 66 90 66 90     f.f.f.f.f.f.f.f.
  1002c0:	66 90 66 90 66 90 66 90 66 90 66 90 66 90 66 90     f.f.f.f.f.f.f.f.
  1002d0:	66 90 66 90 66 90 66 90 66 90 66 90 66 90 66 90     f.f.f.f.f.f.f.f.
  1002e0:	66 90 66 90 66 90 66 90 66 90 66 90 66 90 66 90     f.f.f.f.f.f.f.f.
  1002f0:	66 90 66 90 66 90 66 90 66 90 66 90 66 90 66 90     f.f.f.f.f.f.f.f.
  100300:	66 90 66 90 66 90 66 90 66 90 66 90 66 90 66 90     f.f.f.f.f.f.f.f.
  100310:	66 90 66 90 66 90 66 90 66 90 66 90 66 90 66 90     f.f.f.f.f.f.f.f.
  100320:	66 90 66 90 66 90 66 90 66 90 66 90 66 90 66 90     f.f.f.f.f.f.f.f.
  100330:	66 90 66 90 66 90 66 90 66 90 66 90 66 90 66 90     f.f.f.f.f.f.f.f.
  100340:	66 90 66 90 66 90 66 90 66 90 66 90 66 90 66 90     f.f.f.f.f.f.f.f.
  100350:	66 90 66 90 66 90 66 90 66 90 66 90 66 90 66 90     f.f.f.f.f.f.f.f.
  100360:	66 90 66 90 66 90 66 90 66 90 66 90 66 90 66 90     f.f.f.f.f.f.f.f.
  100370:	66 90 66 90 66 90 66 90 66 90 66 90 66 90 66 90     f.f.f.f.f.f.f.f.
  100380:	66 90 66 90 66 90 66 90 66 90 66 90 66 90 66 90     f.f.f.f.f.f.f.f.
  100390:	66 90 66 90 66 90 66 90 66 90 66 90 66 90 66 90     f.f.f.f.f.f.f.f.
  1003a0:	66 90 66 90 66 90 66 90 66 90 66 90 66 90 66 90     f.f.f.f.f.f.f.f.
  1003b0:	66 90 66 90 66 90 66 90 66 90 66 90 66 90 66 90     f.f.f.f.f.f.f.f.
  1003c0:	66 90 66 90 66 90 66 90 66 90 66 90 66 90 66 90     f.f.f.f.f.f.f.f.
  1003d0:	66 90 66 90 66 90 66 90 66 90 66 90 66 90 66 90     f.f.f.f.f.f.f.f.
  1003e0:	66 90 66 90 66 90 66 90 66 90 66 90 66 90 66 90     f.f.f.f.f.f.f.f.
  1003f0:	66 90 66 90 66 90 66 90 66 90 66 90 66 90 66 90     f.f.f.f.f.f.f.f.
  100400:	66 90 66 90 66 90 66 90 66 90 66 90 66 90 66 90     f.f.f.f.f.f.f.f.
  100410:	66 90 66 90 66 90 66 90 66 90 66 90 66 90 66 90     f.f.f.f.f.f.f.f.
  100420:	66 90 66 90 66 90 66 90 66 90 66 90 66 90 66 90     f.f.f.f.f.f.f.f.
  100430:	66 90 66 90 66 90 66 90 66 90 66 90 66 90 66 90     f.f.f.f.f.f.f.f.
  100440:	66 90 66 90 66 90 66 90 66 90 66 90 66 90 66 90     f.f.f.f.f.f.f.f.
  100450:	66 90 66 90 66 90 66 90 66 90 66 90 66 90 66 90     f.f.f.f.f.f.f.f.
  100460:	66 90 66 90 66 90 66 90 66 90 66 90 66 90 66 90     f.f.f.f.f.f.f.f.
  100470:	66 90 66 90 66 90 66 90 66 90 66 90 66 90 66 90     f.f.f.f.f.f.f.f.
  100480:	66 90 66 90 66 90 66 90 66 90 66 90 66 90 66 90     f.f.f.f.f.f.f.f.
  100490:	66 90 66 90 66 90 66 90 66 90 66 90 66 90 66 90     f.f.f.f.f.f.f.f.
  1004a0:	66 90 66 90 66 90 66 90 66 90 66 90 66 90 66 90     f.f.f.f.f.f.f.f.
  1004b0:	66 90 66 90 66 90 66 90 66 90 66 90 66 90 66 90     f.f.f.f.f.f.f.f.
  1004c0:	66 90 66 90 66 90 66 90 66 90 66 90 66 90 66 90     f.f.f.f.f.f.f.f.
  1004d0:	66 90 66 90 66 90 66 90 66 90 66 90 66 90 66 90     f.f.f.f.f.f.f.f.
  1004e0:	66 90 66 90 66 90 66 90 66 90 66 90 66 90 66 90     f.f.f.f.f.f.f.f.
  1004f0:	66 90 66 90 66 90 66 90 66 90 66 90 66 90 66 90     f.f.f.f.f.f.f.f.
  100500:	66 90 66 90 66 90 66 90 66 90 66 90 66 90 66 90     f.f.f.f.f.f.f.f.
  100510:	66 90 66 90 66 90 66 90 66 90 66 90 66 90 66 90     f.f.f.f.f.f.f.f.
  100520:	66 90 66 90 66 90 66 90 66 90 66 90 66 90 66 90     f.f.f.f.f.f.f.f.
  100530:	66 90 66 90 66 90 66 90 66 90 66 90 66 90 66 90     f.f.f.f.f.f.f.f.
  100540:	66 90 66 90 66 90 66 90 66 90 66 90 66 90 66 90     f.f.f.f.f.f.f.f.
  100550:	66 90 66 90 66 90 66 90 66 90 66 90 66 90 66 90     f.f.f.f.f.f.f.f.
  100560:	66 90 66 90 66 90 66 90 66 90 66 90 66 90 66 90     f.f.f.f.f.f.f.f.
  100570:	66 90 66 90 66 90 66 90 66 90 66 90 66 90 66 90     f.f.f.f.f.f.f.f.
  100580:	66 90 66 90 66 90 66 90 66 90 66 90 66 90 66 90     f.f.f.f.f.f.f.f.
  100590:	66 90 66 90 66 90 66 90 66 90 66 90 66 90 66 90     f.f.f.f.f.f.f.f.
  1005a0:	66 90 66 90 66 90 66 90 66 90 66 90 66 90 66 90     f.f.f.f.f.f.f.f.
  1005b0:	66 90 66 90 66 90 66 90 66 90 66 90 66 90 66 90     f.f.f.f.f.f.f.f.
  1005c0:	66 90 66 90 66 90 66 90 66 90 66 90 66 90 66 90     f.f.f.f.f.f.f.f.
  1005d0:	66 90 66 90 66 90 66 90 66 90 66 90 66 90 66 90     f.f.f.f.f.f.f.f.
  1005e0:	66 90 66 90 66 90 66 90 66 90 66 90 66 90 66 90     f.f.f.f.f.f.f.f.
  1005f0:	66 90 66 90 66 90 66 90 66 90 66 90 66 90 66 90     f.f.f.f.f.f.f.f.
  100600:	66 90 66 90 66 90 66 90 66 90 66 90 66 90 66 90     f.f.f.f.f.f.f.f.
  100610:	66 90 66 90 66 90 66 90 66 90 66 90 66 90 66 90     f.f.f.f.f.f.f.f.
  100620:	66 90 66 90 66 90 66 90 66 90 66 90 66 90 66 90     f.f.f.f.f.f.f.f.
  100630:	66 90 66 90 66 90 66 90 66 90 66 90 66 90 66 90     f.f.f.f.f.f.f.f.
  100640:	66 90 66 90 66 90 66 90 66 90 66 90 66 90 66 90     f.f.f.f.f.f.f.f.
  100650:	66 90 66 90 66 90 66 90 66 90 66 90 66 90 66 90     f.f.f.f.f.f.f.f.
  100660:	66 90 66 90 66 90 66 90 66 90 66 90 66 90 66 90     f.f.f.f.f.f.f.f.
  100670:	66 90 66 90 66 90 66 90 66 90 66 90 66 90 66 90     f.f.f.f.f.f.f.f.
  100680:	66 90 66 90 66 90 66 90 66 90 66 90 66 90 66 90     f.f.f.f.f.f.f.f.
  100690:	66 90 66 90 66 90 66 90 66 90 66 90 66 90 66 90     f.f.f.f.f.f.f.f.
  1006a0:	66 90 66 90 66 90 66 90 66 90 66 90 66 90 66 90     f.f.f.f.f.f.f.f.
  1006b0:	66 90 66 90 66 90 66 90 66 90 66 90 66 90 66 90     f.f.f.f.f.f.f.f.
  1006c0:	66 90 66 90 66 90 66 90 66 90 66 90 66 90 66 90     f.f.f.f.f.f.f.f.
  1006d0:	66 90 66 90 66 90 66 90 66 90 66 90 66 90 66 90     f.f.f.f.f.f.f.f.
  1006e0:	66 90 66 90 66 90 66 90 66 90 66 90 66 90 66 90     f.f.f.f.f.f.f.f.
  1006f0:	66 90 66 90 66 90 66 90 66 90 66 90 66 90 66 90     f.f.f.f.f.f.f.f.
  100700:	66 90 66 90 66 90 66 90 66 90 66 90 66 90 66 90     f.f.f.f.f.f.f.f.
  100710:	66 90 66 90 66 90 66 90 66 90 66 90 66 90 66 90     f.f.f.f.f.f.f.f.
  100720:	66 90 66 90 66 90 66 90 66 90 66 90 66 90 66 90     f.f.f.f.f.f.f.f.
  100730:	66 90 66 90 66 90 66 90 66 90 66 90 66 90 66 90     f.f.f.f.f.f.f.f.
  100740:	66 90 66 90 66 90 66 90 66 90 66 90 66 90 66 90     f.f.f.f.f.f.f.f.
  100750:	66 90 66 90 66 90 66 90 66 90 66 90 66 90 66 90     f.f.f.f.f.f.f.f.
  100760:	66 90 66 90 66 90 66 90 66 90 66 90 66 90 66 90     f.f.f.f.f.f.f.f.
  100770:	66 90 66 90 66 90 66 90 66 90 66 90 66 90 66 90     f.f.f.f.f.f.f.f.
  100780:	66 90 66 90 66 90 66 90 66 90 66 90 66 90 66 90     f.f.f.f.f.f.f.f.
  100790:	66 90 66 90 66 90 66 90 66 90 66 90 66 90 66 90     f.f.f.f.f.f.f.f.
  1007a0:	66 90 66 90 66 90 66 90 66 90 66 90 66 90 66 90     f.f.f.f.f.f.f.f.
  1007b0:	66 90 66 90 66 90 66 90 66 90 66 90 66 90 66 90     f.f.f.f.f.f.f.f.
  1007c0:	66 90 66 90 66 90 66 90 66 90 66 90 66 90 66 90     f.f.f.f.f.f.f.f.
  1007d0:	66 90 66 90 66 90 66 90 66 90 66 90 66 90 66 90     f.f.f.f.f.f.f.f.
  1007e0:	66 90 66 90 66 90 66 90 66 90 66 90 66 90 66 90     f.f.f.f.f.f.f.f.
  1007f0:	66 90 66 90 66 90 66 90 66 90 66 90 66 90 66 90     f.f.f.f.f.f.f.f.
  100800:	66 90 66 90 66 90 66 90 66 90 66 90 66 90 66 90     f.f.f.f.f.f.f.f.
  100810:	66 90 66 90 66 90 66 90 66 90 66 90 66 90 66 90     f.f.f.f.f.f.f.f.
  100820:	66 90 66 90 66 90 66 90 66 90 66 90 66 90 66 90     f.f.f.f.f.f.f.f.
  100830:	66 90 66 90 66 90 66 90 66 90 66 90 66 90 66 90     f.f.f.f.f.f.f.f.
  100840:	66 90 66 90 66 90 66 90 66 90 66 90 66 90 66 90     f.f.f.f.f.f.f.f.
  100850:	66 90 66 90 66 90 66 90 66 90 66 90 66 90 66 90     f.f.f.f.f.f.f.f.
  100860:	66 90 66 90 66 90 66 90 66 90 66 90 66 90 66 90     f.f.f.f.f.f.f.f.
  100870:	66 90 66 90 66 90 66 90 66 90 66 90 66 90 66 90     f.f.f.f.f.f.f.f.
  100880:	66 90 66 90 66 90 66 90 66 90 66 90 66 90 66 90     f.f.f.f.f.f.f.f.
  100890:	66 90 66 90 66 90 66 90 66 90 66 90 66 90 66 90     f.f.f.f.f.f.f.f.
  1008a0:	66 90 66 90 66 90 66 90 66 90 66 90 66 90 66 90     f.f.f.f.f.f.f.f.
  1008b0:	66 90 66 90 66 90 66 90 66 90 66 90 66 90 66 90     f.f.f.f.f.f.f.f.
  1008c0:	66 90 66 90 66 90 66 90 66 90 66 90 66 90 66 90     f.f.f.f.f.f.f.f.
  1008d0:	66 90 66 90 66 90 66 90 66 90 66 90 66 90 66 90     f.f.f.f.f.f.f.f.
  1008e0:	66 90 66 90 66 90 66 90 66 90 66 90 66 90 66 90     f.f.f.f.f.f.f.f.
  1008f0:	66 90 66 90 66 90 66 90 66 90 66 90 66 90 66 90     f.f.f.f.f.f.f.f.
  100900:	66 90 66 90 66 90 66 90 66 90 66 90 66 90 66 90     f.f.f.f.f.f.f.f.
  100910:	66 90 66 90 66 90 66 90 66 90 66 90 66 90 66 90     f.f.f.f.f.f.f.f.
  100920:	66 90 66 90 66 90 66 90 66 90 66 90 66 90 66 90     f.f.f.f.f.f.f.f.
  100930:	66 90 66 90 66 90 66 90 66 90 66 90 66 90 66 90     f.f.f.f.f.f.f.f.
  100940:	66 90 66 90 66 90 66 90 66 90 66 90 66 90 66 90     f.f.f.f.f.f.f.f.
  100950:	66 90 66 90 66 90 66 90 66 90 66 90 66 90 66 90     f.f.f.f.f.f.f.f.
  100960:	66 90 66 90 66 90 66 90 66 90 66 90 66 90 66 90     f.f.f.f.f.f.f.f.
  100970:	66 90 66 90 66 90 66 90 66 90 66 90 66 90 66 90     f.f.f.f.f.f.f.f.
  100980:	66 90 66 90 66 90 66 90 66 90 66 90 66 90 66 90     f.f.f.f.f.f.f.f.
  100990:	66 90 66 90 66 90 66 90 66 90 66 90 66 90 66 90     f.f.f.f.f.f.f.f.
  1009a0:	66 90 66 90 66 90 66 90 66 90 66 90 66 90 66 90     f.f.f.f.f.f.f.f.
  1009b0:	66 90 66 90 66 90 66 90 66 90 66 90 66 90 66 90     f.f.f.f.f.f.f.f.
  1009c0:	66 90 66 90 66 90 66 90 66 90 66 90 66 90 66 90     f.f.f.f.f.f.f.f.
  1009d0:	66 90 66 90 66 90 66 90 66 90 66 90 66 90 66 90     f.f.f.f.f.f.f.f.
  1009e0:	66 90 66 90 66 90 66 90 66 90 66 90 66 90 66 90     f.f.f.f.f.f.f.f.
  1009f0:	66 90 66 90 66 90 66 90 66 90 66 90 66 90 66 90     f.f.f.f.f.f.f.f.
  100a00:	66 90 66 90 66 90 66 90 66 90 66 90 66 90 66 90     f.f.f.f.f.f.f.f.
  100a10:	66 90 66 90 66 90 66 90 66 90 66 90 66 90 66 90     f.f.f.f.f.f.f.f.
  100a20:	66 90 66 90 66 90 66 90 66 90 66 90 66 90 66 90     f.f.f.f.f.f.f.f.
  100a30:	66 90 66 90 66 90 66 90 66 90 66 90 66 90 66 90     f.f.f.f.f.f.f.f.
  100a40:	66 90 66 90 66 90 66 90 66 90 66 90 66 90 66 90     f.f.f.f.f.f.f.f.
  100a50:	66 90 66 90 66 90 66 90 66 90 66 90 66 90 66 90     f.f.f.f.f.f.f.f.
  100a60:	66 90 66 90 66 90 66 90 66 90 66 90 66 90 66 90     f.f.f.f.f.f.f.f.
  100a70:	66 90 66 90 66 90 66 90 66 90 66 90 66 90 66 90     f.f.f.f.f.f.f.f.
  100a80:	66 90 66 90 66 90 66 90 66 90 66 90 66 90 66 90     f.f.f.f.f.f.f.f.
  100a90:	66 90 66 90 66 90 66 90 66 90 66 90 66 90 66 90     f.f.f.f.f.f.f.f.
  100aa0:	66 90 66 90 66 90 66 90 66 90 66 90 66 90 66 90     f.f.f.f.f.f.f.f.
  100ab0:	66 90 66 90 66 90 66 90 66 90 66 90 66 90 66 90     f.f.f.f.f.f.f.f.
  100ac0:	66 90 66 90 66 90 66 90 66 90 66 90 66 90 66 90     f.f.f.f.f.f.f.f.
  100ad0:	66 90 66 90 66 90 66 90 66 90 66 90 66 90 66 90     f.f.f.f.f.f.f.f.
  100ae0:	66 90 66 90 66 90 66 90 66 90 66 90 66 90 66 90     f.f.f.f.f.f.f.f.
  100af0:	66 90 66 90 66 90 66 90 66 90 66 90 66 90 66 90     f.f.f.f.f.f.f.f.
  100b00:	66 90 66 90 66 90 66 90 66 90 66 90 66 90 66 90     f.f.f.f.f.f.f.f.
  100b10:	66 90 66 90 66 90 66 90 66 90 66 90 66 90 66 90     f.f.f.f.f.f.f.f.
  100b20:	66 90 66 90 66 90 66 90 66 90 66 90 66 90 66 90     f.f.f.f.f.f.f.f.
  100b30:	66 90 66 90 66 90 66 90 66 90 66 90 66 90 66 90     f.f.f.f.f.f.f.f.
  100b40:	66 90 66 90 66 90 66 90 66 90 66 90 66 90 66 90     f.f.f.f.f.f.f.f.
  100b50:	66 90 66 90 66 90 66 90 66 90 66 90 66 90 66 90     f.f.f.f.f.f.f.f.
  100b60:	66 90 66 90 66 90 66 90 66 90 66 90 66 90 66 90     f.f.f.f.f.f.f.f.
  100b70:	66 90 66 90 66 90 66 90 66 90 66 90 66 90 66 90     f.f.f.f.f.f.f.f.
  100b80:	66 90 66 90 66 90 66 90 66 90 66 90 66 90 66 90     f.f.f.f.f.f.f.f.
  100b90:	66 90 66 90 66 90 66 90 66 90 66 90 66 90 66 90     f.f.f.f.f.f.f.f.
  100ba0:	66 90 66 90 66 90 66 90 66 90 66 90 66 90 66 90     f.f.f.f.f.f.f.f.
  100bb0:	66 90 66 90 66 90 66 90 66 90 66 90 66 90 66 90     f.f.f.f.f.f.f.f.
  100bc0:	66 90 66 90 66 90 66 90 66 90 66 90 66 90 66 90     f.f.f.f.f.f.f.f.
  100bd0:	66 90 66 90 66 90 66 90 66 90 66 90 66 90 66 90     f.f.f.f.f.f.f.f.
  100be0:	66 90 66 90 66 90 66 90 66 90 66 90 66 90 66 90     f.f.f.f.f.f.f.f.
  100bf0:	66 90 66 90 66 90 66 90 66 90 66 90 66 90 66 90     f.f.f.f.f.f.f.f.
  100c00:	66 90 66 90 66 90 66 90 66 90 66 90 66 90 66 90     f.f.f.f.f.f.f.f.
  100c10:	66 90 66 90 66 90 66 90 66 90 66 90 66 90 66 90     f.f.f.f.f.f.f.f.
  100c20:	66 90 66 90 66 90 66 90 66 90 66 90 66 90 66 90     f.f.f.f.f.f.f.f.
  100c30:	66 90 66 90 66 90 66 90 66 90 66 90 66 90 66 90     f.f.f.f.f.f.f.f.
  100c40:	66 90 66 90 66 90 66 90 66 90 66 90 66 90 66 90     f.f.f.f.f.f.f.f.
  100c50:	66 90 66 90 66 90 66 90 66 90 66 90 66 90 66 90     f.f.f.f.f.f.f.f.
  100c60:	66 90 66 90 66 90 66 90 66 90 66 90 66 90 66 90     f.f.f.f.f.f.f.f.
  100c70:	66 90 66 90 66 90 66 90 66 90 66 90 66 90 66 90     f.f.f.f.f.f.f.f.
  100c80:	66 90 66 90 66 90 66 90 66 90 66 90 66 90 66 90     f.f.f.f.f.f.f.f.
  100c90:	66 90 66 90 66 90 66 90 66 90 66 90 66 90 66 90     f.f.f.f.f.f.f.f.
  100ca0:	66 90 66 90 66 90 66 90 66 90 66 90 66 90 66 90     f.f.f.f.f.f.f.f.
  100cb0:	66 90 66 90 66 90 66 90 66 90 66 90 66 90 66 90     f.f.f.f.f.f.f.f.
  100cc0:	66 90 66 90 66 90 66 90 66 90 66 90 66 90 66 90     f.f.f.f.f.f.f.f.
  100cd0:	66 90 66 90 66 90 66 90 66 90 66 90 66 90 66 90     f.f.f.f.f.f.f.f.
  100ce0:	66 90 66 90 66 90 66 90 66 90 66 90 66 90 66 90     f.f.f.f.f.f.f.f.
  100cf0:	66 90 66 90 66 90 66 90 66 90 66 90 66 90 66 90     f.f.f.f.f.f.f.f.
  100d00:	66 90 66 90 66 90 66 90 66 90 66 90 66 90 66 90     f.f.f.f.f.f.f.f.
  100d10:	66 90 66 90 66 90 66 90 66 90 66 90 66 90 66 90     f.f.f.f.f.f.f.f.
  100d20:	66 90 66 90 66 90 66 90 66 90 66 90 66 90 66 90     f.f.f.f.f.f.f.f.
  100d30:	66 90 66 90 66 90 66 90 66 90 66 90 66 90 66 90     f.f.f.f.f.f.f.f.
  100d40:	66 90 66 90 66 90 66 90 66 90 66 90 66 90 66 90     f.f.f.f.f.f.f.f.
  100d50:	66 90 66 90 66 90 66 90 66 90 66 90 66 90 66 90     f.f.f.f.f.f.f.f.
  100d60:	66 90 66 90 66 90 66 90 66 90 66 90 66 90 66 90     f.f.f.f.f.f.f.f.
  100d70:	66 90 66 90 66 90 66 90 66 90 66 90 66 90 66 90     f.f.f.f.f.f.f.f.
  100d80:	66 90 66 90 66 90 66 90 66 90 66 90 66 90 66 90     f.f.f.f.f.f.f.f.
  100d90:	66 90 66 90 66 90 66 90 66 90 66 90 66 90 66 90     f.f.f.f.f.f.f.f.
  100da0:	66 90 66 90 66 90 66 90 66 90 66 90 66 90 66 90     f.f.f.f.f.f.f.f.
  100db0:	66 90 66 90 66 90 66 90 66 90 66 90 66 90 66 90     f.f.f.f.f.f.f.f.
  100dc0:	66 90 66 90 66 90 66 90 66 90 66 90 66 90 66 90     f.f.f.f.f.f.f.f.
  100dd0:	66 90 66 90 66 90 66 90 66 90 66 90 66 90 66 90     f.f.f.f.f.f.f.f.
  100de0:	66 90 66 90 66 90 66 90 66 90 66 90 66 90 66 90     f.f.f.f.f.f.f.f.
  100df0:	66 90 66 90 66 90 66 90 66 90 66 90 66 90 66 90     f.f.f.f.f.f.f.f.
  100e00:	66 90 66 90 66 90 66 90 66 90 66 90 66 90 66 90     f.f.f.f.f.f.f.f.
  100e10:	66 90 66 90 66 90 66 90 66 90 66 90 66 90 66 90     f.f.f.f.f.f.f.f.
  100e20:	66 90 66 90 66 90 66 90 66 90 66 90 66 90 66 90     f.f.f.f.f.f.f.f.
  100e30:	66 90 66 90 66 90 66 90 66 90 66 90 66 90 66 90     f.f.f.f.f.f.f.f.
  100e40:	66 90 66 90 66 90 66 90 66 90 66 90 66 90 66 90     f.f.f.f.f.f.f.f.
  100e50:	66 90 66 90 66 90 66 90 66 90 66 90 66 90 66 90     f.f.f.f.f.f.f.f.
  100e60:	66 90 66 90 66 90 66 90 66 90 66 90 66 90 66 90     f.f.f.f.f.f.f.f.
  100e70:	66 90 66 90 66 90 66 90 66 90 66 90 66 90 66 90     f.f.f.f.f.f.f.f.
  100e80:	66 90 66 90 66 90 66 90 66 90 66 90 66 90 66 90     f.f.f.f.f.f.f.f.
  100e90:	66 90 66 90 66 90 66 90 66 90 66 90 66 90 66 90     f.f.f.f.f.f.f.f.
  100ea0:	66 90 66 90 66 90 66 90 66 90 66 90 66 90 66 90     f.f.f.f.f.f.f.f.
  100eb0:	66 90 66 90 66 90 66 90 66 90 66 90 66 90 66 90     f.f.f.f.f.f.f.f.
  100ec0:	66 90 66 90 66 90 66 90 66 90 66 90 66 90 66 90     f.f.f.f.f.f.f.f.
  100ed0:	66 90 66 90 66 90 66 90 66 90 66 90 66 90 66 90     f.f.f.f.f.f.f.f.
  100ee0:	66 90 66 90 66 90 66 90 66 90 66 90 66 90 66 90     f.f.f.f.f.f.f.f.
  100ef0:	66 90 66 90 66 90 66 90 66 90 66 90 66 90 66 90     f.f.f.f.f.f.f.f.
  100f00:	66 90 66 90 66 90 66 90 66 90 66 90 66 90 66 90     f.f.f.f.f.f.f.f.
  100f10:	66 90 66 90 66 90 66 90 66 90 66 90 66 90 66 90     f.f.f.f.f.f.f.f.
  100f20:	66 90 66 90 66 90 66 90 66 90 66 90 66 90 66 90     f.f.f.f.f.f.f.f.
  100f30:	66 90 66 90 66 90 66 90 66 90 66 90 66 90 66 90     f.f.f.f.f.f.f.f.
  100f40:	66 90 66 90 66 90 66 90 66 90 66 90 66 90 66 90     f.f.f.f.f.f.f.f.
  100f50:	66 90 66 90 66 90 66 90 66 90 66 90 66 90 66 90     f.f.f.f.f.f.f.f.
  100f60:	66 90 66 90 66 90 66 90 66 90 66 90 66 90 66 90     f.f.f.f.f.f.f.f.
  100f70:	66 90 66 90 66 90 66 90 66 90 66 90 66 90 66 90     f.f.f.f.f.f.f.f.
  100f80:	66 90 66 90 66 90 66 90 66 90 66 90 66 90 66 90     f.f.f.f.f.f.f.f.
  100f90:	66 90 66 90 66 90 66 90 66 90 66 90 66 90 66 90     f.f.f.f.f.f.f.f.
  100fa0:	66 90 66 90 66 90 66 90 66 90 66 90 66 90 66 90     f.f.f.f.f.f.f.f.
  100fb0:	66 90 66 90 66 90 66 90 66 90 66 90 66 90 66 90     f.f.f.f.f.f.f.f.
  100fc0:	66 90 66 90 66 90 66 90 66 90 66 90 66 90 66 90     f.f.f.f.f.f.f.f.
  100fd0:	66 90 66 90 66 90 66 90 66 90 66 90 66 90 66 90     f.f.f.f.f.f.f.f.
  100fe0:	66 90 66 90 66 90 66 90 66 90 66 90 66 90 66 90     f.f.f.f.f.f.f.f.
  100ff0:	66 90 66 90 66 90 66 90 66 90 66 90 66 90 66 90     f.f.f.f.f.f.f.f.

00101000 <kern_entry>:
  101000:	55                   	push   %ebp
  101001:	89 e5                	mov    %esp,%ebp
  101003:	83 ec 18             	sub    $0x18,%esp
  101006:	e8 2c 09 00 00       	call   101937 <console_clear>
  10100b:	e8 5f 0f 00 00       	call   101f6f <init_debug>
  101010:	e8 05 11 00 00       	call   10211a <init_gdt>
  101015:	e8 f7 14 00 00       	call   102511 <init_idt>
  10101a:	e8 17 00 00 00       	call   101036 <Test>
  10101f:	b8 01 00 00 00       	mov    $0x1,%eax
  101024:	b9 00 00 00 00       	mov    $0x0,%ecx
  101029:	99                   	cltd   
  10102a:	f7 f9                	idiv   %ecx
  10102c:	89 45 f4             	mov    %eax,-0xc(%ebp)
  10102f:	b8 00 00 00 00       	mov    $0x0,%eax
  101034:	c9                   	leave  
  101035:	c3                   	ret    

00101036 <Test>:
  101036:	55                   	push   %ebp
  101037:	89 e5                	mov    %esp,%ebp
  101039:	83 ec 08             	sub    $0x8,%esp
  10103c:	83 ec 04             	sub    $0x4,%esp
  10103f:	6a 00                	push   $0x0
  101041:	6a 02                	push   $0x2
  101043:	68 04 40 10 00       	push   $0x104004
  101048:	e8 9d 0a 00 00       	call   101aea <console_write_color>
  10104d:	83 c4 10             	add    $0x10,%esp
  101050:	90                   	nop
  101051:	c9                   	leave  
  101052:	c3                   	ret    

00101053 <itoa>:
  101053:	55                   	push   %ebp
  101054:	89 e5                	mov    %esp,%ebp
  101056:	53                   	push   %ebx
  101057:	83 ec 10             	sub    $0x10,%esp
  10105a:	c7 45 f8 00 00 00 00 	movl   $0x0,-0x8(%ebp)
  101061:	8b 45 08             	mov    0x8(%ebp),%eax
  101064:	89 45 f4             	mov    %eax,-0xc(%ebp)
  101067:	eb 5c                	jmp    1010c5 <itoa+0x72>
  101069:	8b 4d f4             	mov    -0xc(%ebp),%ecx
  10106c:	ba 67 66 66 66       	mov    $0x66666667,%edx
  101071:	89 c8                	mov    %ecx,%eax
  101073:	f7 ea                	imul   %edx
  101075:	89 d0                	mov    %edx,%eax
  101077:	c1 f8 02             	sar    $0x2,%eax
  10107a:	89 cb                	mov    %ecx,%ebx
  10107c:	c1 fb 1f             	sar    $0x1f,%ebx
  10107f:	29 d8                	sub    %ebx,%eax
  101081:	89 c2                	mov    %eax,%edx
  101083:	89 d0                	mov    %edx,%eax
  101085:	c1 e0 02             	shl    $0x2,%eax
  101088:	01 d0                	add    %edx,%eax
  10108a:	01 c0                	add    %eax,%eax
  10108c:	29 c1                	sub    %eax,%ecx
  10108e:	89 ca                	mov    %ecx,%edx
  101090:	89 d0                	mov    %edx,%eax
  101092:	83 c0 30             	add    $0x30,%eax
  101095:	88 45 ee             	mov    %al,-0x12(%ebp)
  101098:	8b 55 f8             	mov    -0x8(%ebp),%edx
  10109b:	8b 45 0c             	mov    0xc(%ebp),%eax
  10109e:	01 c2                	add    %eax,%edx
  1010a0:	0f b6 45 ee          	movzbl -0x12(%ebp),%eax
  1010a4:	88 02                	mov    %al,(%edx)
  1010a6:	83 45 f8 01          	addl   $0x1,-0x8(%ebp)
  1010aa:	8b 4d f4             	mov    -0xc(%ebp),%ecx
  1010ad:	ba 67 66 66 66       	mov    $0x66666667,%edx
  1010b2:	89 c8                	mov    %ecx,%eax
  1010b4:	f7 ea                	imul   %edx
  1010b6:	89 d0                	mov    %edx,%eax
  1010b8:	c1 f8 02             	sar    $0x2,%eax
  1010bb:	c1 f9 1f             	sar    $0x1f,%ecx
  1010be:	89 ca                	mov    %ecx,%edx
  1010c0:	29 d0                	sub    %edx,%eax
  1010c2:	89 45 f4             	mov    %eax,-0xc(%ebp)
  1010c5:	83 7d f4 00          	cmpl   $0x0,-0xc(%ebp)
  1010c9:	75 9e                	jne    101069 <itoa+0x16>
  1010cb:	8b 55 f8             	mov    -0x8(%ebp),%edx
  1010ce:	8b 45 0c             	mov    0xc(%ebp),%eax
  1010d1:	01 d0                	add    %edx,%eax
  1010d3:	c6 00 00             	movb   $0x0,(%eax)
  1010d6:	c7 45 f0 00 00 00 00 	movl   $0x0,-0x10(%ebp)
  1010dd:	eb 41                	jmp    101120 <itoa+0xcd>
  1010df:	8b 55 f0             	mov    -0x10(%ebp),%edx
  1010e2:	8b 45 0c             	mov    0xc(%ebp),%eax
  1010e5:	01 d0                	add    %edx,%eax
  1010e7:	0f b6 00             	movzbl (%eax),%eax
  1010ea:	88 45 ef             	mov    %al,-0x11(%ebp)
  1010ed:	8b 45 f8             	mov    -0x8(%ebp),%eax
  1010f0:	2b 45 f0             	sub    -0x10(%ebp),%eax
  1010f3:	8d 50 ff             	lea    -0x1(%eax),%edx
  1010f6:	8b 45 0c             	mov    0xc(%ebp),%eax
  1010f9:	01 d0                	add    %edx,%eax
  1010fb:	8b 4d f0             	mov    -0x10(%ebp),%ecx
  1010fe:	8b 55 0c             	mov    0xc(%ebp),%edx
  101101:	01 ca                	add    %ecx,%edx
  101103:	0f b6 00             	movzbl (%eax),%eax
  101106:	88 02                	mov    %al,(%edx)
  101108:	8b 45 f8             	mov    -0x8(%ebp),%eax
  10110b:	2b 45 f0             	sub    -0x10(%ebp),%eax
  10110e:	8d 50 ff             	lea    -0x1(%eax),%edx
  101111:	8b 45 0c             	mov    0xc(%ebp),%eax
  101114:	01 c2                	add    %eax,%edx
  101116:	0f b6 45 ef          	movzbl -0x11(%ebp),%eax
  10111a:	88 02                	mov    %al,(%edx)
  10111c:	83 45 f0 01          	addl   $0x1,-0x10(%ebp)
  101120:	8b 45 f8             	mov    -0x8(%ebp),%eax
  101123:	89 c2                	mov    %eax,%edx
  101125:	c1 ea 1f             	shr    $0x1f,%edx
  101128:	01 d0                	add    %edx,%eax
  10112a:	d1 f8                	sar    %eax
  10112c:	39 45 f0             	cmp    %eax,-0x10(%ebp)
  10112f:	7c ae                	jl     1010df <itoa+0x8c>
  101131:	8b 45 0c             	mov    0xc(%ebp),%eax
  101134:	8b 5d fc             	mov    -0x4(%ebp),%ebx
  101137:	c9                   	leave  
  101138:	c3                   	ret    

00101139 <utoa>:
  101139:	55                   	push   %ebp
  10113a:	89 e5                	mov    %esp,%ebp
  10113c:	83 ec 10             	sub    $0x10,%esp
  10113f:	c7 45 fc 00 00 00 00 	movl   $0x0,-0x4(%ebp)
  101146:	8b 45 08             	mov    0x8(%ebp),%eax
  101149:	89 45 f8             	mov    %eax,-0x8(%ebp)
  10114c:	eb 48                	jmp    101196 <utoa+0x5d>
  10114e:	8b 4d f8             	mov    -0x8(%ebp),%ecx
  101151:	ba cd cc cc cc       	mov    $0xcccccccd,%edx
  101156:	89 c8                	mov    %ecx,%eax
  101158:	f7 e2                	mul    %edx
  10115a:	c1 ea 03             	shr    $0x3,%edx
  10115d:	89 d0                	mov    %edx,%eax
  10115f:	c1 e0 02             	shl    $0x2,%eax
  101162:	01 d0                	add    %edx,%eax
  101164:	01 c0                	add    %eax,%eax
  101166:	29 c1                	sub    %eax,%ecx
  101168:	89 ca                	mov    %ecx,%edx
  10116a:	89 d0                	mov    %edx,%eax
  10116c:	83 c0 30             	add    $0x30,%eax
  10116f:	88 45 f2             	mov    %al,-0xe(%ebp)
  101172:	8b 55 fc             	mov    -0x4(%ebp),%edx
  101175:	8b 45 0c             	mov    0xc(%ebp),%eax
  101178:	01 c2                	add    %eax,%edx
  10117a:	0f b6 45 f2          	movzbl -0xe(%ebp),%eax
  10117e:	88 02                	mov    %al,(%edx)
  101180:	83 45 fc 01          	addl   $0x1,-0x4(%ebp)
  101184:	8b 45 f8             	mov    -0x8(%ebp),%eax
  101187:	ba cd cc cc cc       	mov    $0xcccccccd,%edx
  10118c:	f7 e2                	mul    %edx
  10118e:	89 d0                	mov    %edx,%eax
  101190:	c1 e8 03             	shr    $0x3,%eax
  101193:	89 45 f8             	mov    %eax,-0x8(%ebp)
  101196:	83 7d f8 00          	cmpl   $0x0,-0x8(%ebp)
  10119a:	75 b2                	jne    10114e <utoa+0x15>
  10119c:	8b 55 fc             	mov    -0x4(%ebp),%edx
  10119f:	8b 45 0c             	mov    0xc(%ebp),%eax
  1011a2:	01 d0                	add    %edx,%eax
  1011a4:	c6 00 00             	movb   $0x0,(%eax)
  1011a7:	c7 45 f4 00 00 00 00 	movl   $0x0,-0xc(%ebp)
  1011ae:	eb 41                	jmp    1011f1 <utoa+0xb8>
  1011b0:	8b 55 f4             	mov    -0xc(%ebp),%edx
  1011b3:	8b 45 0c             	mov    0xc(%ebp),%eax
  1011b6:	01 d0                	add    %edx,%eax
  1011b8:	0f b6 00             	movzbl (%eax),%eax
  1011bb:	88 45 f3             	mov    %al,-0xd(%ebp)
  1011be:	8b 45 fc             	mov    -0x4(%ebp),%eax
  1011c1:	2b 45 f4             	sub    -0xc(%ebp),%eax
  1011c4:	8d 50 ff             	lea    -0x1(%eax),%edx
  1011c7:	8b 45 0c             	mov    0xc(%ebp),%eax
  1011ca:	01 d0                	add    %edx,%eax
  1011cc:	8b 4d f4             	mov    -0xc(%ebp),%ecx
  1011cf:	8b 55 0c             	mov    0xc(%ebp),%edx
  1011d2:	01 ca                	add    %ecx,%edx
  1011d4:	0f b6 00             	movzbl (%eax),%eax
  1011d7:	88 02                	mov    %al,(%edx)
  1011d9:	8b 45 fc             	mov    -0x4(%ebp),%eax
  1011dc:	2b 45 f4             	sub    -0xc(%ebp),%eax
  1011df:	8d 50 ff             	lea    -0x1(%eax),%edx
  1011e2:	8b 45 0c             	mov    0xc(%ebp),%eax
  1011e5:	01 c2                	add    %eax,%edx
  1011e7:	0f b6 45 f3          	movzbl -0xd(%ebp),%eax
  1011eb:	88 02                	mov    %al,(%edx)
  1011ed:	83 45 f4 01          	addl   $0x1,-0xc(%ebp)
  1011f1:	8b 45 fc             	mov    -0x4(%ebp),%eax
  1011f4:	89 c2                	mov    %eax,%edx
  1011f6:	c1 ea 1f             	shr    $0x1f,%edx
  1011f9:	01 d0                	add    %edx,%eax
  1011fb:	d1 f8                	sar    %eax
  1011fd:	39 45 f4             	cmp    %eax,-0xc(%ebp)
  101200:	7c ae                	jl     1011b0 <utoa+0x77>
  101202:	8b 45 0c             	mov    0xc(%ebp),%eax
  101205:	c9                   	leave  
  101206:	c3                   	ret    

00101207 <ToHex>:
  101207:	55                   	push   %ebp
  101208:	89 e5                	mov    %esp,%ebp
  10120a:	83 ec 20             	sub    $0x20,%esp
  10120d:	c7 45 fc 00 00 00 00 	movl   $0x0,-0x4(%ebp)
  101214:	8b 45 08             	mov    0x8(%ebp),%eax
  101217:	89 45 f8             	mov    %eax,-0x8(%ebp)
  10121a:	eb 44                	jmp    101260 <ToHex+0x59>
  10121c:	c6 45 f7 30          	movb   $0x30,-0x9(%ebp)
  101220:	8b 45 f8             	mov    -0x8(%ebp),%eax
  101223:	83 e0 0f             	and    $0xf,%eax
  101226:	83 f8 09             	cmp    $0x9,%eax
  101229:	77 0e                	ja     101239 <ToHex+0x32>
  10122b:	8b 45 f8             	mov    -0x8(%ebp),%eax
  10122e:	83 e0 0f             	and    $0xf,%eax
  101231:	83 c0 30             	add    $0x30,%eax
  101234:	88 45 f7             	mov    %al,-0x9(%ebp)
  101237:	eb 0c                	jmp    101245 <ToHex+0x3e>
  101239:	8b 45 f8             	mov    -0x8(%ebp),%eax
  10123c:	83 e0 0f             	and    $0xf,%eax
  10123f:	83 c0 37             	add    $0x37,%eax
  101242:	88 45 f7             	mov    %al,-0x9(%ebp)
  101245:	8b 55 fc             	mov    -0x4(%ebp),%edx
  101248:	8b 45 0c             	mov    0xc(%ebp),%eax
  10124b:	01 c2                	add    %eax,%edx
  10124d:	0f b6 45 f7          	movzbl -0x9(%ebp),%eax
  101251:	88 02                	mov    %al,(%edx)
  101253:	83 45 fc 01          	addl   $0x1,-0x4(%ebp)
  101257:	8b 45 f8             	mov    -0x8(%ebp),%eax
  10125a:	c1 e8 04             	shr    $0x4,%eax
  10125d:	89 45 f8             	mov    %eax,-0x8(%ebp)
  101260:	83 7d f8 00          	cmpl   $0x0,-0x8(%ebp)
  101264:	75 b6                	jne    10121c <ToHex+0x15>
  101266:	8b 55 fc             	mov    -0x4(%ebp),%edx
  101269:	8b 45 0c             	mov    0xc(%ebp),%eax
  10126c:	01 d0                	add    %edx,%eax
  10126e:	c6 00 00             	movb   $0x0,(%eax)
  101271:	c7 45 f0 00 00 00 00 	movl   $0x0,-0x10(%ebp)
  101278:	eb 41                	jmp    1012bb <ToHex+0xb4>
  10127a:	8b 55 f0             	mov    -0x10(%ebp),%edx
  10127d:	8b 45 0c             	mov    0xc(%ebp),%eax
  101280:	01 d0                	add    %edx,%eax
  101282:	0f b6 00             	movzbl (%eax),%eax
  101285:	88 45 ef             	mov    %al,-0x11(%ebp)
  101288:	8b 45 fc             	mov    -0x4(%ebp),%eax
  10128b:	2b 45 f0             	sub    -0x10(%ebp),%eax
  10128e:	8d 50 ff             	lea    -0x1(%eax),%edx
  101291:	8b 45 0c             	mov    0xc(%ebp),%eax
  101294:	01 d0                	add    %edx,%eax
  101296:	8b 4d f0             	mov    -0x10(%ebp),%ecx
  101299:	8b 55 0c             	mov    0xc(%ebp),%edx
  10129c:	01 ca                	add    %ecx,%edx
  10129e:	0f b6 00             	movzbl (%eax),%eax
  1012a1:	88 02                	mov    %al,(%edx)
  1012a3:	8b 45 fc             	mov    -0x4(%ebp),%eax
  1012a6:	2b 45 f0             	sub    -0x10(%ebp),%eax
  1012a9:	8d 50 ff             	lea    -0x1(%eax),%edx
  1012ac:	8b 45 0c             	mov    0xc(%ebp),%eax
  1012af:	01 c2                	add    %eax,%edx
  1012b1:	0f b6 45 ef          	movzbl -0x11(%ebp),%eax
  1012b5:	88 02                	mov    %al,(%edx)
  1012b7:	83 45 f0 01          	addl   $0x1,-0x10(%ebp)
  1012bb:	8b 45 fc             	mov    -0x4(%ebp),%eax
  1012be:	89 c2                	mov    %eax,%edx
  1012c0:	c1 ea 1f             	shr    $0x1f,%edx
  1012c3:	01 d0                	add    %edx,%eax
  1012c5:	d1 f8                	sar    %eax
  1012c7:	39 45 f0             	cmp    %eax,-0x10(%ebp)
  1012ca:	7c ae                	jl     10127a <ToHex+0x73>
  1012cc:	8b 45 0c             	mov    0xc(%ebp),%eax
  1012cf:	c9                   	leave  
  1012d0:	c3                   	ret    

001012d1 <sprintk>:
  1012d1:	55                   	push   %ebp
  1012d2:	89 e5                	mov    %esp,%ebp
  1012d4:	83 ec 58             	sub    $0x58,%esp
  1012d7:	83 ec 04             	sub    $0x4,%esp
  1012da:	68 00 04 00 00       	push   $0x400
  1012df:	6a 00                	push   $0x0
  1012e1:	68 00 50 10 00       	push   $0x105000
  1012e6:	e8 67 03 00 00       	call   101652 <memset>
  1012eb:	83 c4 10             	add    $0x10,%esp
  1012ee:	c7 45 f4 00 00 00 00 	movl   $0x0,-0xc(%ebp)
  1012f5:	c7 45 f0 00 00 00 00 	movl   $0x0,-0x10(%ebp)
  1012fc:	c7 45 ec 00 00 00 00 	movl   $0x0,-0x14(%ebp)
  101303:	8b 45 08             	mov    0x8(%ebp),%eax
  101306:	89 45 f4             	mov    %eax,-0xc(%ebp)
  101309:	e9 93 02 00 00       	jmp    1015a1 <sprintk+0x2d0>
  10130e:	8b 45 f4             	mov    -0xc(%ebp),%eax
  101311:	0f b6 00             	movzbl (%eax),%eax
  101314:	3c 25                	cmp    $0x25,%al
  101316:	74 1a                	je     101332 <sprintk+0x61>
  101318:	8b 45 ec             	mov    -0x14(%ebp),%eax
  10131b:	8d 50 01             	lea    0x1(%eax),%edx
  10131e:	89 55 ec             	mov    %edx,-0x14(%ebp)
  101321:	8b 55 f4             	mov    -0xc(%ebp),%edx
  101324:	0f b6 12             	movzbl (%edx),%edx
  101327:	88 90 00 50 10 00    	mov    %dl,0x105000(%eax)
  10132d:	e9 6b 02 00 00       	jmp    10159d <sprintk+0x2cc>
  101332:	83 45 f4 01          	addl   $0x1,-0xc(%ebp)
  101336:	8b 45 f4             	mov    -0xc(%ebp),%eax
  101339:	0f b6 00             	movzbl (%eax),%eax
  10133c:	0f be c0             	movsbl %al,%eax
  10133f:	83 e8 63             	sub    $0x63,%eax
  101342:	83 f8 15             	cmp    $0x15,%eax
  101345:	0f 87 39 02 00 00    	ja     101584 <sprintk+0x2b3>
  10134b:	8b 04 85 10 40 10 00 	mov    0x104010(,%eax,4),%eax
  101352:	ff e0                	jmp    *%eax
  101354:	8b 45 0c             	mov    0xc(%ebp),%eax
  101357:	8d 50 04             	lea    0x4(%eax),%edx
  10135a:	89 55 0c             	mov    %edx,0xc(%ebp)
  10135d:	8b 00                	mov    (%eax),%eax
  10135f:	89 45 dc             	mov    %eax,-0x24(%ebp)
  101362:	83 ec 08             	sub    $0x8,%esp
  101365:	8d 45 b3             	lea    -0x4d(%ebp),%eax
  101368:	50                   	push   %eax
  101369:	ff 75 dc             	push   -0x24(%ebp)
  10136c:	e8 c8 fd ff ff       	call   101139 <utoa>
  101371:	83 c4 10             	add    $0x10,%esp
  101374:	8b 45 ec             	mov    -0x14(%ebp),%eax
  101377:	8d 90 00 50 10 00    	lea    0x105000(%eax),%edx
  10137d:	83 ec 08             	sub    $0x8,%esp
  101380:	8d 45 b3             	lea    -0x4d(%ebp),%eax
  101383:	50                   	push   %eax
  101384:	52                   	push   %edx
  101385:	e8 e3 03 00 00       	call   10176d <strcat>
  10138a:	83 c4 10             	add    $0x10,%esp
  10138d:	83 ec 0c             	sub    $0xc,%esp
  101390:	8d 45 b3             	lea    -0x4d(%ebp),%eax
  101393:	50                   	push   %eax
  101394:	e8 46 04 00 00       	call   1017df <strlen>
  101399:	83 c4 10             	add    $0x10,%esp
  10139c:	01 45 f0             	add    %eax,-0x10(%ebp)
  10139f:	83 ec 0c             	sub    $0xc,%esp
  1013a2:	8d 45 b3             	lea    -0x4d(%ebp),%eax
  1013a5:	50                   	push   %eax
  1013a6:	e8 34 04 00 00       	call   1017df <strlen>
  1013ab:	83 c4 10             	add    $0x10,%esp
  1013ae:	01 45 ec             	add    %eax,-0x14(%ebp)
  1013b1:	e9 e7 01 00 00       	jmp    10159d <sprintk+0x2cc>
  1013b6:	8b 45 0c             	mov    0xc(%ebp),%eax
  1013b9:	8d 50 04             	lea    0x4(%eax),%edx
  1013bc:	89 55 0c             	mov    %edx,0xc(%ebp)
  1013bf:	8b 00                	mov    (%eax),%eax
  1013c1:	89 45 e8             	mov    %eax,-0x18(%ebp)
  1013c4:	83 7d e8 00          	cmpl   $0x0,-0x18(%ebp)
  1013c8:	79 13                	jns    1013dd <sprintk+0x10c>
  1013ca:	8b 45 ec             	mov    -0x14(%ebp),%eax
  1013cd:	8d 50 01             	lea    0x1(%eax),%edx
  1013d0:	89 55 ec             	mov    %edx,-0x14(%ebp)
  1013d3:	c6 80 00 50 10 00 2d 	movb   $0x2d,0x105000(%eax)
  1013da:	f7 5d e8             	negl   -0x18(%ebp)
  1013dd:	83 ec 08             	sub    $0x8,%esp
  1013e0:	8d 45 b3             	lea    -0x4d(%ebp),%eax
  1013e3:	50                   	push   %eax
  1013e4:	ff 75 e8             	push   -0x18(%ebp)
  1013e7:	e8 67 fc ff ff       	call   101053 <itoa>
  1013ec:	83 c4 10             	add    $0x10,%esp
  1013ef:	8b 45 ec             	mov    -0x14(%ebp),%eax
  1013f2:	8d 90 00 50 10 00    	lea    0x105000(%eax),%edx
  1013f8:	83 ec 08             	sub    $0x8,%esp
  1013fb:	8d 45 b3             	lea    -0x4d(%ebp),%eax
  1013fe:	50                   	push   %eax
  1013ff:	52                   	push   %edx
  101400:	e8 68 03 00 00       	call   10176d <strcat>
  101405:	83 c4 10             	add    $0x10,%esp
  101408:	83 ec 0c             	sub    $0xc,%esp
  10140b:	8d 45 b3             	lea    -0x4d(%ebp),%eax
  10140e:	50                   	push   %eax
  10140f:	e8 cb 03 00 00       	call   1017df <strlen>
  101414:	83 c4 10             	add    $0x10,%esp
  101417:	01 45 f0             	add    %eax,-0x10(%ebp)
  10141a:	83 ec 0c             	sub    $0xc,%esp
  10141d:	8d 45 b3             	lea    -0x4d(%ebp),%eax
  101420:	50                   	push   %eax
  101421:	e8 b9 03 00 00       	call   1017df <strlen>
  101426:	83 c4 10             	add    $0x10,%esp
  101429:	01 45 ec             	add    %eax,-0x14(%ebp)
  10142c:	e9 6c 01 00 00       	jmp    10159d <sprintk+0x2cc>
  101431:	8b 45 0c             	mov    0xc(%ebp),%eax
  101434:	8d 50 04             	lea    0x4(%eax),%edx
  101437:	89 55 0c             	mov    %edx,0xc(%ebp)
  10143a:	8b 00                	mov    (%eax),%eax
  10143c:	89 45 d4             	mov    %eax,-0x2c(%ebp)
  10143f:	8b 45 d4             	mov    -0x2c(%ebp),%eax
  101442:	88 45 d3             	mov    %al,-0x2d(%ebp)
  101445:	8b 45 ec             	mov    -0x14(%ebp),%eax
  101448:	8d 50 01             	lea    0x1(%eax),%edx
  10144b:	89 55 ec             	mov    %edx,-0x14(%ebp)
  10144e:	0f b6 55 d3          	movzbl -0x2d(%ebp),%edx
  101452:	88 90 00 50 10 00    	mov    %dl,0x105000(%eax)
  101458:	83 45 f0 01          	addl   $0x1,-0x10(%ebp)
  10145c:	e9 3c 01 00 00       	jmp    10159d <sprintk+0x2cc>
  101461:	8b 45 0c             	mov    0xc(%ebp),%eax
  101464:	8d 50 04             	lea    0x4(%eax),%edx
  101467:	89 55 0c             	mov    %edx,0xc(%ebp)
  10146a:	8b 00                	mov    (%eax),%eax
  10146c:	89 45 e4             	mov    %eax,-0x1c(%ebp)
  10146f:	83 7d e4 00          	cmpl   $0x0,-0x1c(%ebp)
  101473:	79 13                	jns    101488 <sprintk+0x1b7>
  101475:	8b 45 ec             	mov    -0x14(%ebp),%eax
  101478:	8d 50 01             	lea    0x1(%eax),%edx
  10147b:	89 55 ec             	mov    %edx,-0x14(%ebp)
  10147e:	c6 80 00 50 10 00 2d 	movb   $0x2d,0x105000(%eax)
  101485:	f7 5d e4             	negl   -0x1c(%ebp)
  101488:	83 ec 08             	sub    $0x8,%esp
  10148b:	8d 45 b3             	lea    -0x4d(%ebp),%eax
  10148e:	50                   	push   %eax
  10148f:	ff 75 e4             	push   -0x1c(%ebp)
  101492:	e8 bc fb ff ff       	call   101053 <itoa>
  101497:	83 c4 10             	add    $0x10,%esp
  10149a:	8b 45 ec             	mov    -0x14(%ebp),%eax
  10149d:	8d 90 00 50 10 00    	lea    0x105000(%eax),%edx
  1014a3:	83 ec 08             	sub    $0x8,%esp
  1014a6:	8d 45 b3             	lea    -0x4d(%ebp),%eax
  1014a9:	50                   	push   %eax
  1014aa:	52                   	push   %edx
  1014ab:	e8 bd 02 00 00       	call   10176d <strcat>
  1014b0:	83 c4 10             	add    $0x10,%esp
  1014b3:	83 ec 0c             	sub    $0xc,%esp
  1014b6:	8d 45 b3             	lea    -0x4d(%ebp),%eax
  1014b9:	50                   	push   %eax
  1014ba:	e8 20 03 00 00       	call   1017df <strlen>
  1014bf:	83 c4 10             	add    $0x10,%esp
  1014c2:	01 45 f0             	add    %eax,-0x10(%ebp)
  1014c5:	83 ec 0c             	sub    $0xc,%esp
  1014c8:	8d 45 b3             	lea    -0x4d(%ebp),%eax
  1014cb:	50                   	push   %eax
  1014cc:	e8 0e 03 00 00       	call   1017df <strlen>
  1014d1:	83 c4 10             	add    $0x10,%esp
  1014d4:	01 45 ec             	add    %eax,-0x14(%ebp)
  1014d7:	e9 c1 00 00 00       	jmp    10159d <sprintk+0x2cc>
  1014dc:	8b 45 0c             	mov    0xc(%ebp),%eax
  1014df:	8d 50 04             	lea    0x4(%eax),%edx
  1014e2:	89 55 0c             	mov    %edx,0xc(%ebp)
  1014e5:	8b 00                	mov    (%eax),%eax
  1014e7:	89 45 e0             	mov    %eax,-0x20(%ebp)
  1014ea:	83 ec 08             	sub    $0x8,%esp
  1014ed:	8d 45 b3             	lea    -0x4d(%ebp),%eax
  1014f0:	50                   	push   %eax
  1014f1:	ff 75 e0             	push   -0x20(%ebp)
  1014f4:	e8 0e fd ff ff       	call   101207 <ToHex>
  1014f9:	83 c4 10             	add    $0x10,%esp
  1014fc:	8b 45 ec             	mov    -0x14(%ebp),%eax
  1014ff:	8d 90 00 50 10 00    	lea    0x105000(%eax),%edx
  101505:	83 ec 08             	sub    $0x8,%esp
  101508:	8d 45 b3             	lea    -0x4d(%ebp),%eax
  10150b:	50                   	push   %eax
  10150c:	52                   	push   %edx
  10150d:	e8 5b 02 00 00       	call   10176d <strcat>
  101512:	83 c4 10             	add    $0x10,%esp
  101515:	83 ec 0c             	sub    $0xc,%esp
  101518:	8d 45 b3             	lea    -0x4d(%ebp),%eax
  10151b:	50                   	push   %eax
  10151c:	e8 be 02 00 00       	call   1017df <strlen>
  101521:	83 c4 10             	add    $0x10,%esp
  101524:	01 45 f0             	add    %eax,-0x10(%ebp)
  101527:	83 ec 0c             	sub    $0xc,%esp
  10152a:	8d 45 b3             	lea    -0x4d(%ebp),%eax
  10152d:	50                   	push   %eax
  10152e:	e8 ac 02 00 00       	call   1017df <strlen>
  101533:	83 c4 10             	add    $0x10,%esp
  101536:	01 45 ec             	add    %eax,-0x14(%ebp)
  101539:	eb 62                	jmp    10159d <sprintk+0x2cc>
  10153b:	8b 45 0c             	mov    0xc(%ebp),%eax
  10153e:	8d 50 04             	lea    0x4(%eax),%edx
  101541:	89 55 0c             	mov    %edx,0xc(%ebp)
  101544:	8b 00                	mov    (%eax),%eax
  101546:	89 45 d8             	mov    %eax,-0x28(%ebp)
  101549:	8b 45 ec             	mov    -0x14(%ebp),%eax
  10154c:	05 00 50 10 00       	add    $0x105000,%eax
  101551:	83 ec 08             	sub    $0x8,%esp
  101554:	ff 75 d8             	push   -0x28(%ebp)
  101557:	50                   	push   %eax
  101558:	e8 10 02 00 00       	call   10176d <strcat>
  10155d:	83 c4 10             	add    $0x10,%esp
  101560:	83 ec 0c             	sub    $0xc,%esp
  101563:	ff 75 d8             	push   -0x28(%ebp)
  101566:	e8 74 02 00 00       	call   1017df <strlen>
  10156b:	83 c4 10             	add    $0x10,%esp
  10156e:	01 45 f0             	add    %eax,-0x10(%ebp)
  101571:	83 ec 0c             	sub    $0xc,%esp
  101574:	ff 75 d8             	push   -0x28(%ebp)
  101577:	e8 63 02 00 00       	call   1017df <strlen>
  10157c:	83 c4 10             	add    $0x10,%esp
  10157f:	01 45 ec             	add    %eax,-0x14(%ebp)
  101582:	eb 19                	jmp    10159d <sprintk+0x2cc>
  101584:	8b 45 ec             	mov    -0x14(%ebp),%eax
  101587:	8d 50 01             	lea    0x1(%eax),%edx
  10158a:	89 55 ec             	mov    %edx,-0x14(%ebp)
  10158d:	8b 55 f4             	mov    -0xc(%ebp),%edx
  101590:	0f b6 12             	movzbl (%edx),%edx
  101593:	88 90 00 50 10 00    	mov    %dl,0x105000(%eax)
  101599:	83 45 f0 01          	addl   $0x1,-0x10(%ebp)
  10159d:	83 45 f4 01          	addl   $0x1,-0xc(%ebp)
  1015a1:	8b 45 f4             	mov    -0xc(%ebp),%eax
  1015a4:	0f b6 00             	movzbl (%eax),%eax
  1015a7:	84 c0                	test   %al,%al
  1015a9:	0f 85 5f fd ff ff    	jne    10130e <sprintk+0x3d>
  1015af:	8b 45 f0             	mov    -0x10(%ebp),%eax
  1015b2:	c9                   	leave  
  1015b3:	c3                   	ret    

001015b4 <printk>:
  1015b4:	55                   	push   %ebp
  1015b5:	89 e5                	mov    %esp,%ebp
  1015b7:	83 ec 18             	sub    $0x18,%esp
  1015ba:	8d 45 0c             	lea    0xc(%ebp),%eax
  1015bd:	89 45 f4             	mov    %eax,-0xc(%ebp)
  1015c0:	8b 45 f4             	mov    -0xc(%ebp),%eax
  1015c3:	83 ec 08             	sub    $0x8,%esp
  1015c6:	50                   	push   %eax
  1015c7:	ff 75 08             	push   0x8(%ebp)
  1015ca:	e8 02 fd ff ff       	call   1012d1 <sprintk>
  1015cf:	83 c4 10             	add    $0x10,%esp
  1015d2:	83 ec 0c             	sub    $0xc,%esp
  1015d5:	68 00 50 10 00       	push   $0x105000
  1015da:	e8 dc 04 00 00       	call   101abb <console_write>
  1015df:	83 c4 10             	add    $0x10,%esp
  1015e2:	90                   	nop
  1015e3:	c9                   	leave  
  1015e4:	c3                   	ret    

001015e5 <printk_color>:
  1015e5:	55                   	push   %ebp
  1015e6:	89 e5                	mov    %esp,%ebp
  1015e8:	83 ec 18             	sub    $0x18,%esp
  1015eb:	8d 45 14             	lea    0x14(%ebp),%eax
  1015ee:	89 45 f4             	mov    %eax,-0xc(%ebp)
  1015f1:	8b 45 f4             	mov    -0xc(%ebp),%eax
  1015f4:	83 ec 08             	sub    $0x8,%esp
  1015f7:	50                   	push   %eax
  1015f8:	ff 75 10             	push   0x10(%ebp)
  1015fb:	e8 d1 fc ff ff       	call   1012d1 <sprintk>
  101600:	83 c4 10             	add    $0x10,%esp
  101603:	83 ec 04             	sub    $0x4,%esp
  101606:	ff 75 0c             	push   0xc(%ebp)
  101609:	ff 75 08             	push   0x8(%ebp)
  10160c:	68 00 50 10 00       	push   $0x105000
  101611:	e8 d4 04 00 00       	call   101aea <console_write_color>
  101616:	83 c4 10             	add    $0x10,%esp
  101619:	90                   	nop
  10161a:	c9                   	leave  
  10161b:	c3                   	ret    

0010161c <memcpy>:
  10161c:	55                   	push   %ebp
  10161d:	89 e5                	mov    %esp,%ebp
  10161f:	83 ec 10             	sub    $0x10,%esp
  101622:	c7 45 fc 00 00 00 00 	movl   $0x0,-0x4(%ebp)
  101629:	eb 1b                	jmp    101646 <memcpy+0x2a>
  10162b:	8b 55 0c             	mov    0xc(%ebp),%edx
  10162e:	8d 42 01             	lea    0x1(%edx),%eax
  101631:	89 45 0c             	mov    %eax,0xc(%ebp)
  101634:	8b 45 08             	mov    0x8(%ebp),%eax
  101637:	8d 48 01             	lea    0x1(%eax),%ecx
  10163a:	89 4d 08             	mov    %ecx,0x8(%ebp)
  10163d:	0f b6 12             	movzbl (%edx),%edx
  101640:	88 10                	mov    %dl,(%eax)
  101642:	83 45 fc 01          	addl   $0x1,-0x4(%ebp)
  101646:	8b 45 fc             	mov    -0x4(%ebp),%eax
  101649:	39 45 10             	cmp    %eax,0x10(%ebp)
  10164c:	77 dd                	ja     10162b <memcpy+0xf>
  10164e:	90                   	nop
  10164f:	90                   	nop
  101650:	c9                   	leave  
  101651:	c3                   	ret    

00101652 <memset>:
  101652:	55                   	push   %ebp
  101653:	89 e5                	mov    %esp,%ebp
  101655:	83 ec 14             	sub    $0x14,%esp
  101658:	8b 45 0c             	mov    0xc(%ebp),%eax
  10165b:	88 45 ec             	mov    %al,-0x14(%ebp)
  10165e:	8b 45 08             	mov    0x8(%ebp),%eax
  101661:	89 45 fc             	mov    %eax,-0x4(%ebp)
  101664:	c7 45 f8 00 00 00 00 	movl   $0x0,-0x8(%ebp)
  10166b:	eb 13                	jmp    101680 <memset+0x2e>
  10166d:	8b 45 fc             	mov    -0x4(%ebp),%eax
  101670:	8d 50 01             	lea    0x1(%eax),%edx
  101673:	89 55 fc             	mov    %edx,-0x4(%ebp)
  101676:	0f b6 55 ec          	movzbl -0x14(%ebp),%edx
  10167a:	88 10                	mov    %dl,(%eax)
  10167c:	83 45 f8 01          	addl   $0x1,-0x8(%ebp)
  101680:	8b 45 f8             	mov    -0x8(%ebp),%eax
  101683:	39 45 10             	cmp    %eax,0x10(%ebp)
  101686:	77 e5                	ja     10166d <memset+0x1b>
  101688:	90                   	nop
  101689:	90                   	nop
  10168a:	c9                   	leave  
  10168b:	c3                   	ret    

0010168c <strcmp>:
  10168c:	55                   	push   %ebp
  10168d:	89 e5                	mov    %esp,%ebp
  10168f:	83 ec 10             	sub    $0x10,%esp
  101692:	8b 45 08             	mov    0x8(%ebp),%eax
  101695:	89 45 fc             	mov    %eax,-0x4(%ebp)
  101698:	8b 45 0c             	mov    0xc(%ebp),%eax
  10169b:	89 45 f8             	mov    %eax,-0x8(%ebp)
  10169e:	eb 1f                	jmp    1016bf <strcmp+0x33>
  1016a0:	8b 45 fc             	mov    -0x4(%ebp),%eax
  1016a3:	0f b6 10             	movzbl (%eax),%edx
  1016a6:	8b 45 f8             	mov    -0x8(%ebp),%eax
  1016a9:	0f b6 00             	movzbl (%eax),%eax
  1016ac:	38 c2                	cmp    %al,%dl
  1016ae:	74 07                	je     1016b7 <strcmp+0x2b>
  1016b0:	b8 01 00 00 00       	mov    $0x1,%eax
  1016b5:	eb 3c                	jmp    1016f3 <strcmp+0x67>
  1016b7:	83 45 fc 01          	addl   $0x1,-0x4(%ebp)
  1016bb:	83 45 f8 01          	addl   $0x1,-0x8(%ebp)
  1016bf:	8b 45 fc             	mov    -0x4(%ebp),%eax
  1016c2:	0f b6 00             	movzbl (%eax),%eax
  1016c5:	84 c0                	test   %al,%al
  1016c7:	74 0a                	je     1016d3 <strcmp+0x47>
  1016c9:	8b 45 f8             	mov    -0x8(%ebp),%eax
  1016cc:	0f b6 00             	movzbl (%eax),%eax
  1016cf:	84 c0                	test   %al,%al
  1016d1:	75 cd                	jne    1016a0 <strcmp+0x14>
  1016d3:	8b 45 fc             	mov    -0x4(%ebp),%eax
  1016d6:	0f b6 00             	movzbl (%eax),%eax
  1016d9:	84 c0                	test   %al,%al
  1016db:	75 11                	jne    1016ee <strcmp+0x62>
  1016dd:	8b 45 f8             	mov    -0x8(%ebp),%eax
  1016e0:	0f b6 00             	movzbl (%eax),%eax
  1016e3:	84 c0                	test   %al,%al
  1016e5:	75 07                	jne    1016ee <strcmp+0x62>
  1016e7:	b8 00 00 00 00       	mov    $0x0,%eax
  1016ec:	eb 05                	jmp    1016f3 <strcmp+0x67>
  1016ee:	b8 01 00 00 00       	mov    $0x1,%eax
  1016f3:	c9                   	leave  
  1016f4:	c3                   	ret    

001016f5 <strcpy>:
  1016f5:	55                   	push   %ebp
  1016f6:	89 e5                	mov    %esp,%ebp
  1016f8:	83 ec 18             	sub    $0x18,%esp
  1016fb:	8b 45 08             	mov    0x8(%ebp),%eax
  1016fe:	89 45 f0             	mov    %eax,-0x10(%ebp)
  101701:	83 ec 0c             	sub    $0xc,%esp
  101704:	ff 75 0c             	push   0xc(%ebp)
  101707:	e8 d3 00 00 00       	call   1017df <strlen>
  10170c:	83 c4 10             	add    $0x10,%esp
  10170f:	89 45 ec             	mov    %eax,-0x14(%ebp)
  101712:	8b 45 08             	mov    0x8(%ebp),%eax
  101715:	2b 45 0c             	sub    0xc(%ebp),%eax
  101718:	85 c0                	test   %eax,%eax
  10171a:	79 08                	jns    101724 <strcpy+0x2f>
  10171c:	8b 45 0c             	mov    0xc(%ebp),%eax
  10171f:	2b 45 08             	sub    0x8(%ebp),%eax
  101722:	eb 06                	jmp    10172a <strcpy+0x35>
  101724:	8b 45 08             	mov    0x8(%ebp),%eax
  101727:	2b 45 0c             	sub    0xc(%ebp),%eax
  10172a:	89 45 e8             	mov    %eax,-0x18(%ebp)
  10172d:	8b 45 e8             	mov    -0x18(%ebp),%eax
  101730:	3b 45 ec             	cmp    -0x14(%ebp),%eax
  101733:	7d 07                	jge    10173c <strcpy+0x47>
  101735:	b8 00 00 00 00       	mov    $0x0,%eax
  10173a:	eb 2f                	jmp    10176b <strcpy+0x76>
  10173c:	c7 45 f4 00 00 00 00 	movl   $0x0,-0xc(%ebp)
  101743:	eb 1b                	jmp    101760 <strcpy+0x6b>
  101745:	8b 55 f4             	mov    -0xc(%ebp),%edx
  101748:	8b 45 0c             	mov    0xc(%ebp),%eax
  10174b:	8d 0c 02             	lea    (%edx,%eax,1),%ecx
  10174e:	8b 45 08             	mov    0x8(%ebp),%eax
  101751:	8d 50 01             	lea    0x1(%eax),%edx
  101754:	89 55 08             	mov    %edx,0x8(%ebp)
  101757:	0f b6 11             	movzbl (%ecx),%edx
  10175a:	88 10                	mov    %dl,(%eax)
  10175c:	83 45 f4 01          	addl   $0x1,-0xc(%ebp)
  101760:	8b 45 f4             	mov    -0xc(%ebp),%eax
  101763:	3b 45 ec             	cmp    -0x14(%ebp),%eax
  101766:	7c dd                	jl     101745 <strcpy+0x50>
  101768:	8b 45 f0             	mov    -0x10(%ebp),%eax
  10176b:	c9                   	leave  
  10176c:	c3                   	ret    

0010176d <strcat>:
  10176d:	55                   	push   %ebp
  10176e:	89 e5                	mov    %esp,%ebp
  101770:	83 ec 18             	sub    $0x18,%esp
  101773:	8b 45 08             	mov    0x8(%ebp),%eax
  101776:	89 45 f0             	mov    %eax,-0x10(%ebp)
  101779:	83 ec 0c             	sub    $0xc,%esp
  10177c:	ff 75 0c             	push   0xc(%ebp)
  10177f:	e8 5b 00 00 00       	call   1017df <strlen>
  101784:	83 c4 10             	add    $0x10,%esp
  101787:	89 45 ec             	mov    %eax,-0x14(%ebp)
  10178a:	83 ec 0c             	sub    $0xc,%esp
  10178d:	ff 75 08             	push   0x8(%ebp)
  101790:	e8 4a 00 00 00       	call   1017df <strlen>
  101795:	83 c4 10             	add    $0x10,%esp
  101798:	89 45 e8             	mov    %eax,-0x18(%ebp)
  10179b:	c7 45 f4 00 00 00 00 	movl   $0x0,-0xc(%ebp)
  1017a2:	eb 1e                	jmp    1017c2 <strcat+0x55>
  1017a4:	8b 55 f4             	mov    -0xc(%ebp),%edx
  1017a7:	8b 45 0c             	mov    0xc(%ebp),%eax
  1017aa:	01 d0                	add    %edx,%eax
  1017ac:	8b 4d e8             	mov    -0x18(%ebp),%ecx
  1017af:	8b 55 f4             	mov    -0xc(%ebp),%edx
  1017b2:	01 d1                	add    %edx,%ecx
  1017b4:	8b 55 08             	mov    0x8(%ebp),%edx
  1017b7:	01 ca                	add    %ecx,%edx
  1017b9:	0f b6 00             	movzbl (%eax),%eax
  1017bc:	88 02                	mov    %al,(%edx)
  1017be:	83 45 f4 01          	addl   $0x1,-0xc(%ebp)
  1017c2:	8b 45 f4             	mov    -0xc(%ebp),%eax
  1017c5:	3b 45 ec             	cmp    -0x14(%ebp),%eax
  1017c8:	7c da                	jl     1017a4 <strcat+0x37>
  1017ca:	8b 55 e8             	mov    -0x18(%ebp),%edx
  1017cd:	8b 45 ec             	mov    -0x14(%ebp),%eax
  1017d0:	01 c2                	add    %eax,%edx
  1017d2:	8b 45 08             	mov    0x8(%ebp),%eax
  1017d5:	01 d0                	add    %edx,%eax
  1017d7:	c6 00 00             	movb   $0x0,(%eax)
  1017da:	8b 45 f0             	mov    -0x10(%ebp),%eax
  1017dd:	c9                   	leave  
  1017de:	c3                   	ret    

001017df <strlen>:
  1017df:	55                   	push   %ebp
  1017e0:	89 e5                	mov    %esp,%ebp
  1017e2:	83 ec 10             	sub    $0x10,%esp
  1017e5:	c7 45 fc 00 00 00 00 	movl   $0x0,-0x4(%ebp)
  1017ec:	8b 45 08             	mov    0x8(%ebp),%eax
  1017ef:	89 45 f8             	mov    %eax,-0x8(%ebp)
  1017f2:	eb 08                	jmp    1017fc <strlen+0x1d>
  1017f4:	83 45 fc 01          	addl   $0x1,-0x4(%ebp)
  1017f8:	83 45 f8 01          	addl   $0x1,-0x8(%ebp)
  1017fc:	8b 45 f8             	mov    -0x8(%ebp),%eax
  1017ff:	0f b6 00             	movzbl (%eax),%eax
  101802:	84 c0                	test   %al,%al
  101804:	75 ee                	jne    1017f4 <strlen+0x15>
  101806:	8b 45 fc             	mov    -0x4(%ebp),%eax
  101809:	c9                   	leave  
  10180a:	c3                   	ret    

0010180b <outb>:
  10180b:	55                   	push   %ebp
  10180c:	89 e5                	mov    %esp,%ebp
  10180e:	83 ec 08             	sub    $0x8,%esp
  101811:	8b 45 08             	mov    0x8(%ebp),%eax
  101814:	8b 55 0c             	mov    0xc(%ebp),%edx
  101817:	66 89 45 fc          	mov    %ax,-0x4(%ebp)
  10181b:	89 d0                	mov    %edx,%eax
  10181d:	88 45 f8             	mov    %al,-0x8(%ebp)
  101820:	0f b6 45 f8          	movzbl -0x8(%ebp),%eax
  101824:	0f b7 55 fc          	movzwl -0x4(%ebp),%edx
  101828:	ee                   	out    %al,(%dx)
  101829:	90                   	nop
  10182a:	c9                   	leave  
  10182b:	c3                   	ret    

0010182c <move_cursor>:
  10182c:	55                   	push   %ebp
  10182d:	89 e5                	mov    %esp,%ebp
  10182f:	83 ec 10             	sub    $0x10,%esp
  101832:	0f b6 05 01 54 10 00 	movzbl 0x105401,%eax
  101839:	0f b6 d0             	movzbl %al,%edx
  10183c:	89 d0                	mov    %edx,%eax
  10183e:	c1 e0 02             	shl    $0x2,%eax
  101841:	01 d0                	add    %edx,%eax
  101843:	c1 e0 04             	shl    $0x4,%eax
  101846:	89 c2                	mov    %eax,%edx
  101848:	0f b6 05 00 54 10 00 	movzbl 0x105400,%eax
  10184f:	0f b6 c0             	movzbl %al,%eax
  101852:	01 d0                	add    %edx,%eax
  101854:	66 89 45 fe          	mov    %ax,-0x2(%ebp)
  101858:	6a 0e                	push   $0xe
  10185a:	68 d4 03 00 00       	push   $0x3d4
  10185f:	e8 a7 ff ff ff       	call   10180b <outb>
  101864:	83 c4 08             	add    $0x8,%esp
  101867:	0f b7 45 fe          	movzwl -0x2(%ebp),%eax
  10186b:	66 c1 e8 08          	shr    $0x8,%ax
  10186f:	0f b6 c0             	movzbl %al,%eax
  101872:	50                   	push   %eax
  101873:	68 d5 03 00 00       	push   $0x3d5
  101878:	e8 8e ff ff ff       	call   10180b <outb>
  10187d:	83 c4 08             	add    $0x8,%esp
  101880:	6a 0f                	push   $0xf
  101882:	68 d5 03 00 00       	push   $0x3d5
  101887:	e8 7f ff ff ff       	call   10180b <outb>
  10188c:	83 c4 08             	add    $0x8,%esp
  10188f:	0f b7 45 fe          	movzwl -0x2(%ebp),%eax
  101893:	0f b6 c0             	movzbl %al,%eax
  101896:	50                   	push   %eax
  101897:	68 d5 03 00 00       	push   $0x3d5
  10189c:	e8 6a ff ff ff       	call   10180b <outb>
  1018a1:	83 c4 08             	add    $0x8,%esp
  1018a4:	90                   	nop
  1018a5:	c9                   	leave  
  1018a6:	c3                   	ret    

001018a7 <scroll>:
  1018a7:	55                   	push   %ebp
  1018a8:	89 e5                	mov    %esp,%ebp
  1018aa:	83 ec 10             	sub    $0x10,%esp
  1018ad:	c6 45 fb 0f          	movb   $0xf,-0x5(%ebp)
  1018b1:	0f b6 45 fb          	movzbl -0x5(%ebp),%eax
  1018b5:	c1 e0 08             	shl    $0x8,%eax
  1018b8:	83 c8 20             	or     $0x20,%eax
  1018bb:	66 89 45 f8          	mov    %ax,-0x8(%ebp)
  1018bf:	0f b6 05 01 54 10 00 	movzbl 0x105401,%eax
  1018c6:	3c 18                	cmp    $0x18,%al
  1018c8:	76 6a                	jbe    101934 <scroll+0x8d>
  1018ca:	c7 45 fc 00 00 00 00 	movl   $0x0,-0x4(%ebp)
  1018d1:	eb 27                	jmp    1018fa <scroll+0x53>
  1018d3:	8b 15 00 40 10 00    	mov    0x104000,%edx
  1018d9:	8b 45 fc             	mov    -0x4(%ebp),%eax
  1018dc:	83 c0 50             	add    $0x50,%eax
  1018df:	01 c0                	add    %eax,%eax
  1018e1:	01 d0                	add    %edx,%eax
  1018e3:	8b 0d 00 40 10 00    	mov    0x104000,%ecx
  1018e9:	8b 55 fc             	mov    -0x4(%ebp),%edx
  1018ec:	01 d2                	add    %edx,%edx
  1018ee:	01 ca                	add    %ecx,%edx
  1018f0:	0f b7 00             	movzwl (%eax),%eax
  1018f3:	66 89 02             	mov    %ax,(%edx)
  1018f6:	83 45 fc 01          	addl   $0x1,-0x4(%ebp)
  1018fa:	81 7d fc 7f 07 00 00 	cmpl   $0x77f,-0x4(%ebp)
  101901:	7e d0                	jle    1018d3 <scroll+0x2c>
  101903:	c7 45 fc 80 07 00 00 	movl   $0x780,-0x4(%ebp)
  10190a:	eb 18                	jmp    101924 <scroll+0x7d>
  10190c:	8b 15 00 40 10 00    	mov    0x104000,%edx
  101912:	8b 45 fc             	mov    -0x4(%ebp),%eax
  101915:	01 c0                	add    %eax,%eax
  101917:	01 c2                	add    %eax,%edx
  101919:	0f b7 45 f8          	movzwl -0x8(%ebp),%eax
  10191d:	66 89 02             	mov    %ax,(%edx)
  101920:	83 45 fc 01          	addl   $0x1,-0x4(%ebp)
  101924:	81 7d fc cf 07 00 00 	cmpl   $0x7cf,-0x4(%ebp)
  10192b:	7e df                	jle    10190c <scroll+0x65>
  10192d:	c6 05 01 54 10 00 18 	movb   $0x18,0x105401
  101934:	90                   	nop
  101935:	c9                   	leave  
  101936:	c3                   	ret    

00101937 <console_clear>:
  101937:	55                   	push   %ebp
  101938:	89 e5                	mov    %esp,%ebp
  10193a:	83 ec 10             	sub    $0x10,%esp
  10193d:	c6 45 fb 0f          	movb   $0xf,-0x5(%ebp)
  101941:	0f b6 45 fb          	movzbl -0x5(%ebp),%eax
  101945:	c1 e0 08             	shl    $0x8,%eax
  101948:	83 c8 20             	or     $0x20,%eax
  10194b:	66 89 45 f8          	mov    %ax,-0x8(%ebp)
  10194f:	c7 45 fc 00 00 00 00 	movl   $0x0,-0x4(%ebp)
  101956:	eb 18                	jmp    101970 <console_clear+0x39>
  101958:	8b 15 00 40 10 00    	mov    0x104000,%edx
  10195e:	8b 45 fc             	mov    -0x4(%ebp),%eax
  101961:	01 c0                	add    %eax,%eax
  101963:	01 c2                	add    %eax,%edx
  101965:	0f b7 45 f8          	movzwl -0x8(%ebp),%eax
  101969:	66 89 02             	mov    %ax,(%edx)
  10196c:	83 45 fc 01          	addl   $0x1,-0x4(%ebp)
  101970:	81 7d fc cf 07 00 00 	cmpl   $0x7cf,-0x4(%ebp)
  101977:	7e df                	jle    101958 <console_clear+0x21>
  101979:	c6 05 00 54 10 00 00 	movb   $0x0,0x105400
  101980:	c6 05 01 54 10 00 00 	movb   $0x0,0x105401
  101987:	e8 a0 fe ff ff       	call   10182c <move_cursor>
  10198c:	90                   	nop
  10198d:	c9                   	leave  
  10198e:	c3                   	ret    

0010198f <console_putc_color>:
  10198f:	55                   	push   %ebp
  101990:	89 e5                	mov    %esp,%ebp
  101992:	53                   	push   %ebx
  101993:	83 ec 14             	sub    $0x14,%esp
  101996:	8b 45 08             	mov    0x8(%ebp),%eax
  101999:	88 45 e8             	mov    %al,-0x18(%ebp)
  10199c:	8b 45 10             	mov    0x10(%ebp),%eax
  10199f:	88 45 fb             	mov    %al,-0x5(%ebp)
  1019a2:	8b 45 0c             	mov    0xc(%ebp),%eax
  1019a5:	88 45 fa             	mov    %al,-0x6(%ebp)
  1019a8:	0f b6 45 fb          	movzbl -0x5(%ebp),%eax
  1019ac:	c1 e0 04             	shl    $0x4,%eax
  1019af:	89 c2                	mov    %eax,%edx
  1019b1:	0f b6 45 fa          	movzbl -0x6(%ebp),%eax
  1019b5:	83 e0 0f             	and    $0xf,%eax
  1019b8:	09 d0                	or     %edx,%eax
  1019ba:	88 45 f9             	mov    %al,-0x7(%ebp)
  1019bd:	0f b6 45 f9          	movzbl -0x7(%ebp),%eax
  1019c1:	c1 e0 08             	shl    $0x8,%eax
  1019c4:	66 89 45 f6          	mov    %ax,-0xa(%ebp)
  1019c8:	80 7d e8 08          	cmpb   $0x8,-0x18(%ebp)
  1019cc:	75 1f                	jne    1019ed <console_putc_color+0x5e>
  1019ce:	0f b6 05 00 54 10 00 	movzbl 0x105400,%eax
  1019d5:	84 c0                	test   %al,%al
  1019d7:	74 14                	je     1019ed <console_putc_color+0x5e>
  1019d9:	0f b6 05 00 54 10 00 	movzbl 0x105400,%eax
  1019e0:	83 e8 01             	sub    $0x1,%eax
  1019e3:	a2 00 54 10 00       	mov    %al,0x105400
  1019e8:	e9 9d 00 00 00       	jmp    101a8a <console_putc_color+0xfb>
  1019ed:	80 7d e8 09          	cmpb   $0x9,-0x18(%ebp)
  1019f1:	75 17                	jne    101a0a <console_putc_color+0x7b>
  1019f3:	0f b6 05 00 54 10 00 	movzbl 0x105400,%eax
  1019fa:	83 c0 08             	add    $0x8,%eax
  1019fd:	83 e0 f8             	and    $0xfffffff8,%eax
  101a00:	a2 00 54 10 00       	mov    %al,0x105400
  101a05:	e9 80 00 00 00       	jmp    101a8a <console_putc_color+0xfb>
  101a0a:	80 7d e8 0d          	cmpb   $0xd,-0x18(%ebp)
  101a0e:	75 09                	jne    101a19 <console_putc_color+0x8a>
  101a10:	c6 05 00 54 10 00 00 	movb   $0x0,0x105400
  101a17:	eb 71                	jmp    101a8a <console_putc_color+0xfb>
  101a19:	80 7d e8 0a          	cmpb   $0xa,-0x18(%ebp)
  101a1d:	75 18                	jne    101a37 <console_putc_color+0xa8>
  101a1f:	c6 05 00 54 10 00 00 	movb   $0x0,0x105400
  101a26:	0f b6 05 01 54 10 00 	movzbl 0x105401,%eax
  101a2d:	83 c0 01             	add    $0x1,%eax
  101a30:	a2 01 54 10 00       	mov    %al,0x105401
  101a35:	eb 53                	jmp    101a8a <console_putc_color+0xfb>
  101a37:	80 7d e8 1f          	cmpb   $0x1f,-0x18(%ebp)
  101a3b:	7e 4d                	jle    101a8a <console_putc_color+0xfb>
  101a3d:	66 0f be 55 e8       	movsbw -0x18(%ebp),%dx
  101a42:	0f b7 45 f6          	movzwl -0xa(%ebp),%eax
  101a46:	89 d1                	mov    %edx,%ecx
  101a48:	09 c1                	or     %eax,%ecx
  101a4a:	8b 1d 00 40 10 00    	mov    0x104000,%ebx
  101a50:	0f b6 05 01 54 10 00 	movzbl 0x105401,%eax
  101a57:	0f b6 d0             	movzbl %al,%edx
  101a5a:	89 d0                	mov    %edx,%eax
  101a5c:	c1 e0 02             	shl    $0x2,%eax
  101a5f:	01 d0                	add    %edx,%eax
  101a61:	c1 e0 04             	shl    $0x4,%eax
  101a64:	89 c2                	mov    %eax,%edx
  101a66:	0f b6 05 00 54 10 00 	movzbl 0x105400,%eax
  101a6d:	0f b6 c0             	movzbl %al,%eax
  101a70:	01 d0                	add    %edx,%eax
  101a72:	01 c0                	add    %eax,%eax
  101a74:	01 d8                	add    %ebx,%eax
  101a76:	89 ca                	mov    %ecx,%edx
  101a78:	66 89 10             	mov    %dx,(%eax)
  101a7b:	0f b6 05 00 54 10 00 	movzbl 0x105400,%eax
  101a82:	83 c0 01             	add    $0x1,%eax
  101a85:	a2 00 54 10 00       	mov    %al,0x105400
  101a8a:	0f b6 05 00 54 10 00 	movzbl 0x105400,%eax
  101a91:	3c 4f                	cmp    $0x4f,%al
  101a93:	76 16                	jbe    101aab <console_putc_color+0x11c>
  101a95:	c6 05 00 54 10 00 00 	movb   $0x0,0x105400
  101a9c:	0f b6 05 01 54 10 00 	movzbl 0x105401,%eax
  101aa3:	83 c0 01             	add    $0x1,%eax
  101aa6:	a2 01 54 10 00       	mov    %al,0x105401
  101aab:	e8 f7 fd ff ff       	call   1018a7 <scroll>
  101ab0:	e8 77 fd ff ff       	call   10182c <move_cursor>
  101ab5:	90                   	nop
  101ab6:	8b 5d fc             	mov    -0x4(%ebp),%ebx
  101ab9:	c9                   	leave  
  101aba:	c3                   	ret    

00101abb <console_write>:
  101abb:	55                   	push   %ebp
  101abc:	89 e5                	mov    %esp,%ebp
  101abe:	eb 1c                	jmp    101adc <console_write+0x21>
  101ac0:	8b 45 08             	mov    0x8(%ebp),%eax
  101ac3:	8d 50 01             	lea    0x1(%eax),%edx
  101ac6:	89 55 08             	mov    %edx,0x8(%ebp)
  101ac9:	0f b6 00             	movzbl (%eax),%eax
  101acc:	0f be c0             	movsbl %al,%eax
  101acf:	6a 00                	push   $0x0
  101ad1:	6a 0f                	push   $0xf
  101ad3:	50                   	push   %eax
  101ad4:	e8 b6 fe ff ff       	call   10198f <console_putc_color>
  101ad9:	83 c4 0c             	add    $0xc,%esp
  101adc:	8b 45 08             	mov    0x8(%ebp),%eax
  101adf:	0f b6 00             	movzbl (%eax),%eax
  101ae2:	84 c0                	test   %al,%al
  101ae4:	75 da                	jne    101ac0 <console_write+0x5>
  101ae6:	90                   	nop
  101ae7:	90                   	nop
  101ae8:	c9                   	leave  
  101ae9:	c3                   	ret    

00101aea <console_write_color>:
  101aea:	55                   	push   %ebp
  101aeb:	89 e5                	mov    %esp,%ebp
  101aed:	eb 1e                	jmp    101b0d <console_write_color+0x23>
  101aef:	8b 45 08             	mov    0x8(%ebp),%eax
  101af2:	8d 50 01             	lea    0x1(%eax),%edx
  101af5:	89 55 08             	mov    %edx,0x8(%ebp)
  101af8:	0f b6 00             	movzbl (%eax),%eax
  101afb:	0f be c0             	movsbl %al,%eax
  101afe:	ff 75 10             	push   0x10(%ebp)
  101b01:	ff 75 0c             	push   0xc(%ebp)
  101b04:	50                   	push   %eax
  101b05:	e8 85 fe ff ff       	call   10198f <console_putc_color>
  101b0a:	83 c4 0c             	add    $0xc,%esp
  101b0d:	8b 45 08             	mov    0x8(%ebp),%eax
  101b10:	0f b6 00             	movzbl (%eax),%eax
  101b13:	84 c0                	test   %al,%al
  101b15:	75 d8                	jne    101aef <console_write_color+0x5>
  101b17:	90                   	nop
  101b18:	90                   	nop
  101b19:	c9                   	leave  
  101b1a:	c3                   	ret    

00101b1b <KDebugTest>:
  101b1b:	55                   	push   %ebp
  101b1c:	89 e5                	mov    %esp,%ebp
  101b1e:	83 ec 08             	sub    $0x8,%esp
  101b21:	83 ec 0c             	sub    $0xc,%esp
  101b24:	68 68 40 10 00       	push   $0x104068
  101b29:	e8 86 fa ff ff       	call   1015b4 <printk>
  101b2e:	83 c4 10             	add    $0x10,%esp
  101b31:	83 ec 0c             	sub    $0xc,%esp
  101b34:	68 83 40 10 00       	push   $0x104083
  101b39:	e8 2d 05 00 00       	call   10206b <panic>
  101b3e:	83 c4 10             	add    $0x10,%esp
  101b41:	90                   	nop
  101b42:	c9                   	leave  
  101b43:	c3                   	ret    

00101b44 <KStdioTest>:
  101b44:	55                   	push   %ebp
  101b45:	89 e5                	mov    %esp,%ebp
  101b47:	83 ec 08             	sub    $0x8,%esp
  101b4a:	83 ec 0c             	sub    $0xc,%esp
  101b4d:	68 88 40 10 00       	push   $0x104088
  101b52:	e8 64 ff ff ff       	call   101abb <console_write>
  101b57:	83 c4 10             	add    $0x10,%esp
  101b5a:	83 ec 0c             	sub    $0xc,%esp
  101b5d:	68 a3 40 10 00       	push   $0x1040a3
  101b62:	e8 4d fa ff ff       	call   1015b4 <printk>
  101b67:	83 c4 10             	add    $0x10,%esp
  101b6a:	83 ec 04             	sub    $0x4,%esp
  101b6d:	6a ff                	push   $0xffffffff
  101b6f:	6a 01                	push   $0x1
  101b71:	68 ba 40 10 00       	push   $0x1040ba
  101b76:	e8 39 fa ff ff       	call   1015b4 <printk>
  101b7b:	83 c4 10             	add    $0x10,%esp
  101b7e:	83 ec 08             	sub    $0x8,%esp
  101b81:	6a 48                	push   $0x48
  101b83:	68 d8 40 10 00       	push   $0x1040d8
  101b88:	e8 27 fa ff ff       	call   1015b4 <printk>
  101b8d:	83 c4 10             	add    $0x10,%esp
  101b90:	83 ec 08             	sub    $0x8,%esp
  101b93:	68 f0 40 10 00       	push   $0x1040f0
  101b98:	68 fd 40 10 00       	push   $0x1040fd
  101b9d:	e8 12 fa ff ff       	call   1015b4 <printk>
  101ba2:	83 c4 10             	add    $0x10,%esp
  101ba5:	83 ec 04             	sub    $0x4,%esp
  101ba8:	6a ff                	push   $0xffffffff
  101baa:	6a 01                	push   $0x1
  101bac:	68 17 41 10 00       	push   $0x104117
  101bb1:	e8 fe f9 ff ff       	call   1015b4 <printk>
  101bb6:	83 c4 10             	add    $0x10,%esp
  101bb9:	83 ec 04             	sub    $0x4,%esp
  101bbc:	68 78 56 34 12       	push   $0x12345678
  101bc1:	6a ff                	push   $0xffffffff
  101bc3:	68 32 41 10 00       	push   $0x104132
  101bc8:	e8 e7 f9 ff ff       	call   1015b4 <printk>
  101bcd:	83 c4 10             	add    $0x10,%esp
  101bd0:	83 ec 04             	sub    $0x4,%esp
  101bd3:	68 50 41 10 00       	push   $0x104150
  101bd8:	6a 00                	push   $0x0
  101bda:	6a 02                	push   $0x2
  101bdc:	e8 04 fa ff ff       	call   1015e5 <printk_color>
  101be1:	83 c4 10             	add    $0x10,%esp
  101be4:	83 ec 0c             	sub    $0xc,%esp
  101be7:	68 64 41 10 00       	push   $0x104164
  101bec:	e8 ca fe ff ff       	call   101abb <console_write>
  101bf1:	83 c4 10             	add    $0x10,%esp
  101bf4:	90                   	nop
  101bf5:	c9                   	leave  
  101bf6:	c3                   	ret    

00101bf7 <KStringTest>:
  101bf7:	55                   	push   %ebp
  101bf8:	89 e5                	mov    %esp,%ebp
  101bfa:	83 ec 18             	sub    $0x18,%esp
  101bfd:	c7 45 f4 84 41 10 00 	movl   $0x104184,-0xc(%ebp)
  101c04:	c7 45 f0 8a 41 10 00 	movl   $0x10418a,-0x10(%ebp)
  101c0b:	c7 45 ec 91 41 10 00 	movl   $0x104191,-0x14(%ebp)
  101c12:	c7 45 e8 91 41 10 00 	movl   $0x104191,-0x18(%ebp)
  101c19:	83 ec 0c             	sub    $0xc,%esp
  101c1c:	68 92 41 10 00       	push   $0x104192
  101c21:	e8 95 fe ff ff       	call   101abb <console_write>
  101c26:	83 c4 10             	add    $0x10,%esp
  101c29:	83 ec 0c             	sub    $0xc,%esp
  101c2c:	ff 75 f4             	push   -0xc(%ebp)
  101c2f:	e8 ab fb ff ff       	call   1017df <strlen>
  101c34:	83 c4 10             	add    $0x10,%esp
  101c37:	83 f8 05             	cmp    $0x5,%eax
  101c3a:	75 12                	jne    101c4e <KStringTest+0x57>
  101c3c:	83 ec 0c             	sub    $0xc,%esp
  101c3f:	68 af 41 10 00       	push   $0x1041af
  101c44:	e8 72 fe ff ff       	call   101abb <console_write>
  101c49:	83 c4 10             	add    $0x10,%esp
  101c4c:	eb 10                	jmp    101c5e <KStringTest+0x67>
  101c4e:	83 ec 0c             	sub    $0xc,%esp
  101c51:	68 bf 41 10 00       	push   $0x1041bf
  101c56:	e8 60 fe ff ff       	call   101abb <console_write>
  101c5b:	83 c4 10             	add    $0x10,%esp
  101c5e:	83 ec 08             	sub    $0x8,%esp
  101c61:	68 84 41 10 00       	push   $0x104184
  101c66:	ff 75 f4             	push   -0xc(%ebp)
  101c69:	e8 1e fa ff ff       	call   10168c <strcmp>
  101c6e:	83 c4 10             	add    $0x10,%esp
  101c71:	85 c0                	test   %eax,%eax
  101c73:	75 27                	jne    101c9c <KStringTest+0xa5>
  101c75:	83 ec 08             	sub    $0x8,%esp
  101c78:	ff 75 f0             	push   -0x10(%ebp)
  101c7b:	ff 75 f4             	push   -0xc(%ebp)
  101c7e:	e8 09 fa ff ff       	call   10168c <strcmp>
  101c83:	83 c4 10             	add    $0x10,%esp
  101c86:	85 c0                	test   %eax,%eax
  101c88:	74 12                	je     101c9c <KStringTest+0xa5>
  101c8a:	83 ec 0c             	sub    $0xc,%esp
  101c8d:	68 d3 41 10 00       	push   $0x1041d3
  101c92:	e8 24 fe ff ff       	call   101abb <console_write>
  101c97:	83 c4 10             	add    $0x10,%esp
  101c9a:	eb 10                	jmp    101cac <KStringTest+0xb5>
  101c9c:	83 ec 0c             	sub    $0xc,%esp
  101c9f:	68 bf 41 10 00       	push   $0x1041bf
  101ca4:	e8 12 fe ff ff       	call   101abb <console_write>
  101ca9:	83 c4 10             	add    $0x10,%esp
  101cac:	83 ec 08             	sub    $0x8,%esp
  101caf:	ff 75 f0             	push   -0x10(%ebp)
  101cb2:	ff 75 f4             	push   -0xc(%ebp)
  101cb5:	e8 b3 fa ff ff       	call   10176d <strcat>
  101cba:	83 c4 10             	add    $0x10,%esp
  101cbd:	83 ec 08             	sub    $0x8,%esp
  101cc0:	68 e3 41 10 00       	push   $0x1041e3
  101cc5:	50                   	push   %eax
  101cc6:	e8 c1 f9 ff ff       	call   10168c <strcmp>
  101ccb:	83 c4 10             	add    $0x10,%esp
  101cce:	85 c0                	test   %eax,%eax
  101cd0:	75 12                	jne    101ce4 <KStringTest+0xed>
  101cd2:	83 ec 0c             	sub    $0xc,%esp
  101cd5:	68 ef 41 10 00       	push   $0x1041ef
  101cda:	e8 dc fd ff ff       	call   101abb <console_write>
  101cdf:	83 c4 10             	add    $0x10,%esp
  101ce2:	eb 10                	jmp    101cf4 <KStringTest+0xfd>
  101ce4:	83 ec 0c             	sub    $0xc,%esp
  101ce7:	68 bf 41 10 00       	push   $0x1041bf
  101cec:	e8 ca fd ff ff       	call   101abb <console_write>
  101cf1:	83 c4 10             	add    $0x10,%esp
  101cf4:	83 ec 04             	sub    $0x4,%esp
  101cf7:	6a 05                	push   $0x5
  101cf9:	6a 48                	push   $0x48
  101cfb:	ff 75 ec             	push   -0x14(%ebp)
  101cfe:	e8 4f f9 ff ff       	call   101652 <memset>
  101d03:	83 c4 10             	add    $0x10,%esp
  101d06:	8b 45 ec             	mov    -0x14(%ebp),%eax
  101d09:	83 c0 05             	add    $0x5,%eax
  101d0c:	c6 00 00             	movb   $0x0,(%eax)
  101d0f:	83 ec 08             	sub    $0x8,%esp
  101d12:	68 ff 41 10 00       	push   $0x1041ff
  101d17:	ff 75 ec             	push   -0x14(%ebp)
  101d1a:	e8 6d f9 ff ff       	call   10168c <strcmp>
  101d1f:	83 c4 10             	add    $0x10,%esp
  101d22:	85 c0                	test   %eax,%eax
  101d24:	75 12                	jne    101d38 <KStringTest+0x141>
  101d26:	83 ec 0c             	sub    $0xc,%esp
  101d29:	68 05 42 10 00       	push   $0x104205
  101d2e:	e8 88 fd ff ff       	call   101abb <console_write>
  101d33:	83 c4 10             	add    $0x10,%esp
  101d36:	eb 10                	jmp    101d48 <KStringTest+0x151>
  101d38:	83 ec 0c             	sub    $0xc,%esp
  101d3b:	68 bf 41 10 00       	push   $0x1041bf
  101d40:	e8 76 fd ff ff       	call   101abb <console_write>
  101d45:	83 c4 10             	add    $0x10,%esp
  101d48:	83 ec 04             	sub    $0x4,%esp
  101d4b:	6a 07                	push   $0x7
  101d4d:	68 15 42 10 00       	push   $0x104215
  101d52:	ff 75 e8             	push   -0x18(%ebp)
  101d55:	e8 c2 f8 ff ff       	call   10161c <memcpy>
  101d5a:	83 c4 10             	add    $0x10,%esp
  101d5d:	83 ec 08             	sub    $0x8,%esp
  101d60:	68 1d 42 10 00       	push   $0x10421d
  101d65:	ff 75 e8             	push   -0x18(%ebp)
  101d68:	e8 1f f9 ff ff       	call   10168c <strcmp>
  101d6d:	83 c4 10             	add    $0x10,%esp
  101d70:	85 c0                	test   %eax,%eax
  101d72:	75 12                	jne    101d86 <KStringTest+0x18f>
  101d74:	83 ec 0c             	sub    $0xc,%esp
  101d77:	68 24 42 10 00       	push   $0x104224
  101d7c:	e8 3a fd ff ff       	call   101abb <console_write>
  101d81:	83 c4 10             	add    $0x10,%esp
  101d84:	eb 10                	jmp    101d96 <KStringTest+0x19f>
  101d86:	83 ec 0c             	sub    $0xc,%esp
  101d89:	68 bf 41 10 00       	push   $0x1041bf
  101d8e:	e8 28 fd ff ff       	call   101abb <console_write>
  101d93:	83 c4 10             	add    $0x10,%esp
  101d96:	83 ec 0c             	sub    $0xc,%esp
  101d99:	68 34 42 10 00       	push   $0x104234
  101d9e:	e8 18 fd ff ff       	call   101abb <console_write>
  101da3:	83 c4 10             	add    $0x10,%esp
  101da6:	90                   	nop
  101da7:	c9                   	leave  
  101da8:	c3                   	ret    

00101da9 <elf_from_multiboot>:
  101da9:	55                   	push   %ebp
  101daa:	89 e5                	mov    %esp,%ebp
  101dac:	83 ec 28             	sub    $0x28,%esp
  101daf:	8b 45 0c             	mov    0xc(%ebp),%eax
  101db2:	8b 40 24             	mov    0x24(%eax),%eax
  101db5:	89 45 f0             	mov    %eax,-0x10(%ebp)
  101db8:	8b 45 0c             	mov    0xc(%ebp),%eax
  101dbb:	8b 50 28             	mov    0x28(%eax),%edx
  101dbe:	89 d0                	mov    %edx,%eax
  101dc0:	c1 e0 02             	shl    $0x2,%eax
  101dc3:	01 d0                	add    %edx,%eax
  101dc5:	c1 e0 03             	shl    $0x3,%eax
  101dc8:	89 c2                	mov    %eax,%edx
  101dca:	8b 45 f0             	mov    -0x10(%ebp),%eax
  101dcd:	01 d0                	add    %edx,%eax
  101dcf:	8b 40 0c             	mov    0xc(%eax),%eax
  101dd2:	89 45 ec             	mov    %eax,-0x14(%ebp)
  101dd5:	c7 45 f4 00 00 00 00 	movl   $0x0,-0xc(%ebp)
  101ddc:	e9 b8 00 00 00       	jmp    101e99 <elf_from_multiboot+0xf0>
  101de1:	8b 55 f4             	mov    -0xc(%ebp),%edx
  101de4:	89 d0                	mov    %edx,%eax
  101de6:	c1 e0 02             	shl    $0x2,%eax
  101de9:	01 d0                	add    %edx,%eax
  101deb:	c1 e0 03             	shl    $0x3,%eax
  101dee:	89 c2                	mov    %eax,%edx
  101df0:	8b 45 f0             	mov    -0x10(%ebp),%eax
  101df3:	01 d0                	add    %edx,%eax
  101df5:	8b 10                	mov    (%eax),%edx
  101df7:	8b 45 ec             	mov    -0x14(%ebp),%eax
  101dfa:	01 d0                	add    %edx,%eax
  101dfc:	89 45 e8             	mov    %eax,-0x18(%ebp)
  101dff:	83 ec 08             	sub    $0x8,%esp
  101e02:	68 58 42 10 00       	push   $0x104258
  101e07:	ff 75 e8             	push   -0x18(%ebp)
  101e0a:	e8 7d f8 ff ff       	call   10168c <strcmp>
  101e0f:	83 c4 10             	add    $0x10,%esp
  101e12:	85 c0                	test   %eax,%eax
  101e14:	75 34                	jne    101e4a <elf_from_multiboot+0xa1>
  101e16:	8b 55 f4             	mov    -0xc(%ebp),%edx
  101e19:	89 d0                	mov    %edx,%eax
  101e1b:	c1 e0 02             	shl    $0x2,%eax
  101e1e:	01 d0                	add    %edx,%eax
  101e20:	c1 e0 03             	shl    $0x3,%eax
  101e23:	89 c2                	mov    %eax,%edx
  101e25:	8b 45 f0             	mov    -0x10(%ebp),%eax
  101e28:	01 d0                	add    %edx,%eax
  101e2a:	8b 40 0c             	mov    0xc(%eax),%eax
  101e2d:	89 45 e0             	mov    %eax,-0x20(%ebp)
  101e30:	8b 55 f4             	mov    -0xc(%ebp),%edx
  101e33:	89 d0                	mov    %edx,%eax
  101e35:	c1 e0 02             	shl    $0x2,%eax
  101e38:	01 d0                	add    %edx,%eax
  101e3a:	c1 e0 03             	shl    $0x3,%eax
  101e3d:	89 c2                	mov    %eax,%edx
  101e3f:	8b 45 f0             	mov    -0x10(%ebp),%eax
  101e42:	01 d0                	add    %edx,%eax
  101e44:	8b 40 14             	mov    0x14(%eax),%eax
  101e47:	89 45 e4             	mov    %eax,-0x1c(%ebp)
  101e4a:	83 ec 08             	sub    $0x8,%esp
  101e4d:	68 60 42 10 00       	push   $0x104260
  101e52:	ff 75 e8             	push   -0x18(%ebp)
  101e55:	e8 32 f8 ff ff       	call   10168c <strcmp>
  101e5a:	83 c4 10             	add    $0x10,%esp
  101e5d:	85 c0                	test   %eax,%eax
  101e5f:	75 34                	jne    101e95 <elf_from_multiboot+0xec>
  101e61:	8b 55 f4             	mov    -0xc(%ebp),%edx
  101e64:	89 d0                	mov    %edx,%eax
  101e66:	c1 e0 02             	shl    $0x2,%eax
  101e69:	01 d0                	add    %edx,%eax
  101e6b:	c1 e0 03             	shl    $0x3,%eax
  101e6e:	89 c2                	mov    %eax,%edx
  101e70:	8b 45 f0             	mov    -0x10(%ebp),%eax
  101e73:	01 d0                	add    %edx,%eax
  101e75:	8b 40 0c             	mov    0xc(%eax),%eax
  101e78:	89 45 d8             	mov    %eax,-0x28(%ebp)
  101e7b:	8b 55 f4             	mov    -0xc(%ebp),%edx
  101e7e:	89 d0                	mov    %edx,%eax
  101e80:	c1 e0 02             	shl    $0x2,%eax
  101e83:	01 d0                	add    %edx,%eax
  101e85:	c1 e0 03             	shl    $0x3,%eax
  101e88:	89 c2                	mov    %eax,%edx
  101e8a:	8b 45 f0             	mov    -0x10(%ebp),%eax
  101e8d:	01 d0                	add    %edx,%eax
  101e8f:	8b 40 14             	mov    0x14(%eax),%eax
  101e92:	89 45 dc             	mov    %eax,-0x24(%ebp)
  101e95:	83 45 f4 01          	addl   $0x1,-0xc(%ebp)
  101e99:	8b 45 0c             	mov    0xc(%ebp),%eax
  101e9c:	8b 50 1c             	mov    0x1c(%eax),%edx
  101e9f:	8b 45 f4             	mov    -0xc(%ebp),%eax
  101ea2:	39 c2                	cmp    %eax,%edx
  101ea4:	0f 87 37 ff ff ff    	ja     101de1 <elf_from_multiboot+0x38>
  101eaa:	8b 45 08             	mov    0x8(%ebp),%eax
  101ead:	8b 55 d8             	mov    -0x28(%ebp),%edx
  101eb0:	89 10                	mov    %edx,(%eax)
  101eb2:	8b 55 dc             	mov    -0x24(%ebp),%edx
  101eb5:	89 50 04             	mov    %edx,0x4(%eax)
  101eb8:	8b 55 e0             	mov    -0x20(%ebp),%edx
  101ebb:	89 50 08             	mov    %edx,0x8(%eax)
  101ebe:	8b 55 e4             	mov    -0x1c(%ebp),%edx
  101ec1:	89 50 0c             	mov    %edx,0xc(%eax)
  101ec4:	8b 45 08             	mov    0x8(%ebp),%eax
  101ec7:	c9                   	leave  
  101ec8:	c2 04 00             	ret    $0x4

00101ecb <elf_lookup_symbol>:
  101ecb:	55                   	push   %ebp
  101ecc:	89 e5                	mov    %esp,%ebp
  101ece:	83 ec 10             	sub    $0x10,%esp
  101ed1:	c7 45 fc 00 00 00 00 	movl   $0x0,-0x4(%ebp)
  101ed8:	eb 78                	jmp    101f52 <elf_lookup_symbol+0x87>
  101eda:	8b 45 0c             	mov    0xc(%ebp),%eax
  101edd:	8b 10                	mov    (%eax),%edx
  101edf:	8b 45 fc             	mov    -0x4(%ebp),%eax
  101ee2:	c1 e0 04             	shl    $0x4,%eax
  101ee5:	01 d0                	add    %edx,%eax
  101ee7:	0f b6 40 0c          	movzbl 0xc(%eax),%eax
  101eeb:	0f b6 c0             	movzbl %al,%eax
  101eee:	83 e0 0f             	and    $0xf,%eax
  101ef1:	83 f8 02             	cmp    $0x2,%eax
  101ef4:	75 57                	jne    101f4d <elf_lookup_symbol+0x82>
  101ef6:	8b 45 0c             	mov    0xc(%ebp),%eax
  101ef9:	8b 10                	mov    (%eax),%edx
  101efb:	8b 45 fc             	mov    -0x4(%ebp),%eax
  101efe:	c1 e0 04             	shl    $0x4,%eax
  101f01:	01 d0                	add    %edx,%eax
  101f03:	8b 40 04             	mov    0x4(%eax),%eax
  101f06:	39 45 08             	cmp    %eax,0x8(%ebp)
  101f09:	72 43                	jb     101f4e <elf_lookup_symbol+0x83>
  101f0b:	8b 45 0c             	mov    0xc(%ebp),%eax
  101f0e:	8b 10                	mov    (%eax),%edx
  101f10:	8b 45 fc             	mov    -0x4(%ebp),%eax
  101f13:	c1 e0 04             	shl    $0x4,%eax
  101f16:	01 d0                	add    %edx,%eax
  101f18:	8b 50 04             	mov    0x4(%eax),%edx
  101f1b:	8b 45 0c             	mov    0xc(%ebp),%eax
  101f1e:	8b 08                	mov    (%eax),%ecx
  101f20:	8b 45 fc             	mov    -0x4(%ebp),%eax
  101f23:	c1 e0 04             	shl    $0x4,%eax
  101f26:	01 c8                	add    %ecx,%eax
  101f28:	8b 40 08             	mov    0x8(%eax),%eax
  101f2b:	01 d0                	add    %edx,%eax
  101f2d:	39 45 08             	cmp    %eax,0x8(%ebp)
  101f30:	73 1c                	jae    101f4e <elf_lookup_symbol+0x83>
  101f32:	8b 45 0c             	mov    0xc(%ebp),%eax
  101f35:	8b 40 08             	mov    0x8(%eax),%eax
  101f38:	89 c1                	mov    %eax,%ecx
  101f3a:	8b 45 0c             	mov    0xc(%ebp),%eax
  101f3d:	8b 10                	mov    (%eax),%edx
  101f3f:	8b 45 fc             	mov    -0x4(%ebp),%eax
  101f42:	c1 e0 04             	shl    $0x4,%eax
  101f45:	01 d0                	add    %edx,%eax
  101f47:	8b 00                	mov    (%eax),%eax
  101f49:	01 c8                	add    %ecx,%eax
  101f4b:	eb 20                	jmp    101f6d <elf_lookup_symbol+0xa2>
  101f4d:	90                   	nop
  101f4e:	83 45 fc 01          	addl   $0x1,-0x4(%ebp)
  101f52:	8b 45 0c             	mov    0xc(%ebp),%eax
  101f55:	8b 40 04             	mov    0x4(%eax),%eax
  101f58:	c1 e8 04             	shr    $0x4,%eax
  101f5b:	89 c2                	mov    %eax,%edx
  101f5d:	8b 45 fc             	mov    -0x4(%ebp),%eax
  101f60:	39 c2                	cmp    %eax,%edx
  101f62:	0f 87 72 ff ff ff    	ja     101eda <elf_lookup_symbol+0xf>
  101f68:	b8 00 00 00 00       	mov    $0x0,%eax
  101f6d:	c9                   	leave  
  101f6e:	c3                   	ret    

00101f6f <init_debug>:
  101f6f:	55                   	push   %ebp
  101f70:	89 e5                	mov    %esp,%ebp
  101f72:	83 ec 18             	sub    $0x18,%esp
  101f75:	8b 15 a8 35 10 00    	mov    0x1035a8,%edx
  101f7b:	8d 45 e8             	lea    -0x18(%ebp),%eax
  101f7e:	83 ec 08             	sub    $0x8,%esp
  101f81:	52                   	push   %edx
  101f82:	50                   	push   %eax
  101f83:	e8 21 fe ff ff       	call   101da9 <elf_from_multiboot>
  101f88:	83 c4 0c             	add    $0xc,%esp
  101f8b:	8b 45 e8             	mov    -0x18(%ebp),%eax
  101f8e:	a3 04 54 10 00       	mov    %eax,0x105404
  101f93:	8b 45 ec             	mov    -0x14(%ebp),%eax
  101f96:	a3 08 54 10 00       	mov    %eax,0x105408
  101f9b:	8b 45 f0             	mov    -0x10(%ebp),%eax
  101f9e:	a3 0c 54 10 00       	mov    %eax,0x10540c
  101fa3:	8b 45 f4             	mov    -0xc(%ebp),%eax
  101fa6:	a3 10 54 10 00       	mov    %eax,0x105410
  101fab:	90                   	nop
  101fac:	c9                   	leave  
  101fad:	c3                   	ret    

00101fae <print_cur_status>:
  101fae:	55                   	push   %ebp
  101faf:	89 e5                	mov    %esp,%ebp
  101fb1:	83 ec 18             	sub    $0x18,%esp
  101fb4:	8c 4d f6             	mov    %cs,-0xa(%ebp)
  101fb7:	8c 5d f4             	mov    %ds,-0xc(%ebp)
  101fba:	8c 45 f2             	mov    %es,-0xe(%ebp)
  101fbd:	8c 55 f0             	mov    %ss,-0x10(%ebp)
  101fc0:	0f b7 45 f6          	movzwl -0xa(%ebp),%eax
  101fc4:	0f b7 c0             	movzwl %ax,%eax
  101fc7:	83 e0 03             	and    $0x3,%eax
  101fca:	89 c2                	mov    %eax,%edx
  101fcc:	a1 14 54 10 00       	mov    0x105414,%eax
  101fd1:	83 ec 04             	sub    $0x4,%esp
  101fd4:	52                   	push   %edx
  101fd5:	50                   	push   %eax
  101fd6:	68 68 42 10 00       	push   $0x104268
  101fdb:	e8 d4 f5 ff ff       	call   1015b4 <printk>
  101fe0:	83 c4 10             	add    $0x10,%esp
  101fe3:	0f b7 45 f6          	movzwl -0xa(%ebp),%eax
  101fe7:	0f b7 d0             	movzwl %ax,%edx
  101fea:	a1 14 54 10 00       	mov    0x105414,%eax
  101fef:	83 ec 04             	sub    $0x4,%esp
  101ff2:	52                   	push   %edx
  101ff3:	50                   	push   %eax
  101ff4:	68 76 42 10 00       	push   $0x104276
  101ff9:	e8 b6 f5 ff ff       	call   1015b4 <printk>
  101ffe:	83 c4 10             	add    $0x10,%esp
  102001:	0f b7 45 f4          	movzwl -0xc(%ebp),%eax
  102005:	0f b7 d0             	movzwl %ax,%edx
  102008:	a1 14 54 10 00       	mov    0x105414,%eax
  10200d:	83 ec 04             	sub    $0x4,%esp
  102010:	52                   	push   %edx
  102011:	50                   	push   %eax
  102012:	68 84 42 10 00       	push   $0x104284
  102017:	e8 98 f5 ff ff       	call   1015b4 <printk>
  10201c:	83 c4 10             	add    $0x10,%esp
  10201f:	0f b7 45 f2          	movzwl -0xe(%ebp),%eax
  102023:	0f b7 d0             	movzwl %ax,%edx
  102026:	a1 14 54 10 00       	mov    0x105414,%eax
  10202b:	83 ec 04             	sub    $0x4,%esp
  10202e:	52                   	push   %edx
  10202f:	50                   	push   %eax
  102030:	68 92 42 10 00       	push   $0x104292
  102035:	e8 7a f5 ff ff       	call   1015b4 <printk>
  10203a:	83 c4 10             	add    $0x10,%esp
  10203d:	0f b7 45 f0          	movzwl -0x10(%ebp),%eax
  102041:	0f b7 d0             	movzwl %ax,%edx
  102044:	a1 14 54 10 00       	mov    0x105414,%eax
  102049:	83 ec 04             	sub    $0x4,%esp
  10204c:	52                   	push   %edx
  10204d:	50                   	push   %eax
  10204e:	68 a0 42 10 00       	push   $0x1042a0
  102053:	e8 5c f5 ff ff       	call   1015b4 <printk>
  102058:	83 c4 10             	add    $0x10,%esp
  10205b:	a1 14 54 10 00       	mov    0x105414,%eax
  102060:	83 c0 01             	add    $0x1,%eax
  102063:	a3 14 54 10 00       	mov    %eax,0x105414
  102068:	90                   	nop
  102069:	c9                   	leave  
  10206a:	c3                   	ret    

0010206b <panic>:
  10206b:	55                   	push   %ebp
  10206c:	89 e5                	mov    %esp,%ebp
  10206e:	83 ec 08             	sub    $0x8,%esp
  102071:	83 ec 08             	sub    $0x8,%esp
  102074:	ff 75 08             	push   0x8(%ebp)
  102077:	68 ae 42 10 00       	push   $0x1042ae
  10207c:	e8 33 f5 ff ff       	call   1015b4 <printk>
  102081:	83 c4 10             	add    $0x10,%esp
  102084:	e8 12 00 00 00       	call   10209b <print_stack_trace>
  102089:	83 ec 0c             	sub    $0xc,%esp
  10208c:	68 c4 42 10 00       	push   $0x1042c4
  102091:	e8 1e f5 ff ff       	call   1015b4 <printk>
  102096:	83 c4 10             	add    $0x10,%esp
  102099:	eb fe                	jmp    102099 <panic+0x2e>

0010209b <print_stack_trace>:
  10209b:	55                   	push   %ebp
  10209c:	89 e5                	mov    %esp,%ebp
  10209e:	83 ec 18             	sub    $0x18,%esp
  1020a1:	89 e8                	mov    %ebp,%eax
  1020a3:	89 45 f4             	mov    %eax,-0xc(%ebp)
  1020a6:	eb 3e                	jmp    1020e6 <print_stack_trace+0x4b>
  1020a8:	8b 45 f4             	mov    -0xc(%ebp),%eax
  1020ab:	83 c0 04             	add    $0x4,%eax
  1020ae:	89 45 f0             	mov    %eax,-0x10(%ebp)
  1020b1:	8b 45 f0             	mov    -0x10(%ebp),%eax
  1020b4:	8b 00                	mov    (%eax),%eax
  1020b6:	83 ec 08             	sub    $0x8,%esp
  1020b9:	68 04 54 10 00       	push   $0x105404
  1020be:	50                   	push   %eax
  1020bf:	e8 07 fe ff ff       	call   101ecb <elf_lookup_symbol>
  1020c4:	83 c4 10             	add    $0x10,%esp
  1020c7:	8b 55 f0             	mov    -0x10(%ebp),%edx
  1020ca:	8b 12                	mov    (%edx),%edx
  1020cc:	83 ec 04             	sub    $0x4,%esp
  1020cf:	50                   	push   %eax
  1020d0:	52                   	push   %edx
  1020d1:	68 c9 42 10 00       	push   $0x1042c9
  1020d6:	e8 d9 f4 ff ff       	call   1015b4 <printk>
  1020db:	83 c4 10             	add    $0x10,%esp
  1020de:	8b 45 f4             	mov    -0xc(%ebp),%eax
  1020e1:	8b 00                	mov    (%eax),%eax
  1020e3:	89 45 f4             	mov    %eax,-0xc(%ebp)
  1020e6:	83 7d f4 00          	cmpl   $0x0,-0xc(%ebp)
  1020ea:	75 bc                	jne    1020a8 <print_stack_trace+0xd>
  1020ec:	90                   	nop
  1020ed:	90                   	nop
  1020ee:	c9                   	leave  
  1020ef:	c3                   	ret    

001020f0 <lgdt>:
  1020f0:	55                   	push   %ebp
  1020f1:	89 e5                	mov    %esp,%ebp
  1020f3:	83 ec 10             	sub    $0x10,%esp
  1020f6:	8b 45 0c             	mov    0xc(%ebp),%eax
  1020f9:	83 e8 01             	sub    $0x1,%eax
  1020fc:	66 89 45 fa          	mov    %ax,-0x6(%ebp)
  102100:	8b 45 08             	mov    0x8(%ebp),%eax
  102103:	66 89 45 fc          	mov    %ax,-0x4(%ebp)
  102107:	8b 45 08             	mov    0x8(%ebp),%eax
  10210a:	c1 e8 10             	shr    $0x10,%eax
  10210d:	66 89 45 fe          	mov    %ax,-0x2(%ebp)
  102111:	8d 45 fa             	lea    -0x6(%ebp),%eax
  102114:	0f 01 10             	lgdtl  (%eax)
  102117:	90                   	nop
  102118:	c9                   	leave  
  102119:	c3                   	ret    

0010211a <init_gdt>:
  10211a:	55                   	push   %ebp
  10211b:	89 e5                	mov    %esp,%ebp
  10211d:	66 c7 05 20 54 10 00 	movw   $0x0,0x105420
  102124:	00 00 
  102126:	66 c7 05 22 54 10 00 	movw   $0x0,0x105422
  10212d:	00 00 
  10212f:	c6 05 24 54 10 00 00 	movb   $0x0,0x105424
  102136:	0f b6 05 25 54 10 00 	movzbl 0x105425,%eax
  10213d:	83 e0 f0             	and    $0xfffffff0,%eax
  102140:	a2 25 54 10 00       	mov    %al,0x105425
  102145:	0f b6 05 25 54 10 00 	movzbl 0x105425,%eax
  10214c:	83 c8 10             	or     $0x10,%eax
  10214f:	a2 25 54 10 00       	mov    %al,0x105425
  102154:	0f b6 05 25 54 10 00 	movzbl 0x105425,%eax
  10215b:	83 e0 9f             	and    $0xffffff9f,%eax
  10215e:	a2 25 54 10 00       	mov    %al,0x105425
  102163:	0f b6 05 25 54 10 00 	movzbl 0x105425,%eax
  10216a:	83 c8 80             	or     $0xffffff80,%eax
  10216d:	a2 25 54 10 00       	mov    %al,0x105425
  102172:	0f b6 05 26 54 10 00 	movzbl 0x105426,%eax
  102179:	83 e0 f0             	and    $0xfffffff0,%eax
  10217c:	a2 26 54 10 00       	mov    %al,0x105426
  102181:	0f b6 05 26 54 10 00 	movzbl 0x105426,%eax
  102188:	83 e0 ef             	and    $0xffffffef,%eax
  10218b:	a2 26 54 10 00       	mov    %al,0x105426
  102190:	0f b6 05 26 54 10 00 	movzbl 0x105426,%eax
  102197:	83 e0 df             	and    $0xffffffdf,%eax
  10219a:	a2 26 54 10 00       	mov    %al,0x105426
  10219f:	0f b6 05 26 54 10 00 	movzbl 0x105426,%eax
  1021a6:	83 c8 40             	or     $0x40,%eax
  1021a9:	a2 26 54 10 00       	mov    %al,0x105426
  1021ae:	0f b6 05 26 54 10 00 	movzbl 0x105426,%eax
  1021b5:	83 e0 7f             	and    $0x7f,%eax
  1021b8:	a2 26 54 10 00       	mov    %al,0x105426
  1021bd:	c6 05 27 54 10 00 00 	movb   $0x0,0x105427
  1021c4:	66 c7 05 28 54 10 00 	movw   $0xffff,0x105428
  1021cb:	ff ff 
  1021cd:	66 c7 05 2a 54 10 00 	movw   $0x0,0x10542a
  1021d4:	00 00 
  1021d6:	c6 05 2c 54 10 00 00 	movb   $0x0,0x10542c
  1021dd:	0f b6 05 2d 54 10 00 	movzbl 0x10542d,%eax
  1021e4:	83 e0 f0             	and    $0xfffffff0,%eax
  1021e7:	83 c8 0a             	or     $0xa,%eax
  1021ea:	a2 2d 54 10 00       	mov    %al,0x10542d
  1021ef:	0f b6 05 2d 54 10 00 	movzbl 0x10542d,%eax
  1021f6:	83 c8 10             	or     $0x10,%eax
  1021f9:	a2 2d 54 10 00       	mov    %al,0x10542d
  1021fe:	0f b6 05 2d 54 10 00 	movzbl 0x10542d,%eax
  102205:	83 e0 9f             	and    $0xffffff9f,%eax
  102208:	a2 2d 54 10 00       	mov    %al,0x10542d
  10220d:	0f b6 05 2d 54 10 00 	movzbl 0x10542d,%eax
  102214:	83 c8 80             	or     $0xffffff80,%eax
  102217:	a2 2d 54 10 00       	mov    %al,0x10542d
  10221c:	0f b6 05 2e 54 10 00 	movzbl 0x10542e,%eax
  102223:	83 c8 0f             	or     $0xf,%eax
  102226:	a2 2e 54 10 00       	mov    %al,0x10542e
  10222b:	0f b6 05 2e 54 10 00 	movzbl 0x10542e,%eax
  102232:	83 e0 ef             	and    $0xffffffef,%eax
  102235:	a2 2e 54 10 00       	mov    %al,0x10542e
  10223a:	0f b6 05 2e 54 10 00 	movzbl 0x10542e,%eax
  102241:	83 e0 df             	and    $0xffffffdf,%eax
  102244:	a2 2e 54 10 00       	mov    %al,0x10542e
  102249:	0f b6 05 2e 54 10 00 	movzbl 0x10542e,%eax
  102250:	83 c8 40             	or     $0x40,%eax
  102253:	a2 2e 54 10 00       	mov    %al,0x10542e
  102258:	0f b6 05 2e 54 10 00 	movzbl 0x10542e,%eax
  10225f:	83 e0 7f             	and    $0x7f,%eax
  102262:	a2 2e 54 10 00       	mov    %al,0x10542e
  102267:	c6 05 2f 54 10 00 00 	movb   $0x0,0x10542f
  10226e:	66 c7 05 30 54 10 00 	movw   $0xffff,0x105430
  102275:	ff ff 
  102277:	66 c7 05 32 54 10 00 	movw   $0x0,0x105432
  10227e:	00 00 
  102280:	c6 05 34 54 10 00 00 	movb   $0x0,0x105434
  102287:	0f b6 05 35 54 10 00 	movzbl 0x105435,%eax
  10228e:	83 e0 f0             	and    $0xfffffff0,%eax
  102291:	83 c8 02             	or     $0x2,%eax
  102294:	a2 35 54 10 00       	mov    %al,0x105435
  102299:	0f b6 05 35 54 10 00 	movzbl 0x105435,%eax
  1022a0:	83 c8 10             	or     $0x10,%eax
  1022a3:	a2 35 54 10 00       	mov    %al,0x105435
  1022a8:	0f b6 05 35 54 10 00 	movzbl 0x105435,%eax
  1022af:	83 e0 9f             	and    $0xffffff9f,%eax
  1022b2:	a2 35 54 10 00       	mov    %al,0x105435
  1022b7:	0f b6 05 35 54 10 00 	movzbl 0x105435,%eax
  1022be:	83 c8 80             	or     $0xffffff80,%eax
  1022c1:	a2 35 54 10 00       	mov    %al,0x105435
  1022c6:	0f b6 05 36 54 10 00 	movzbl 0x105436,%eax
  1022cd:	83 c8 0f             	or     $0xf,%eax
  1022d0:	a2 36 54 10 00       	mov    %al,0x105436
  1022d5:	0f b6 05 36 54 10 00 	movzbl 0x105436,%eax
  1022dc:	83 e0 ef             	and    $0xffffffef,%eax
  1022df:	a2 36 54 10 00       	mov    %al,0x105436
  1022e4:	0f b6 05 36 54 10 00 	movzbl 0x105436,%eax
  1022eb:	83 e0 df             	and    $0xffffffdf,%eax
  1022ee:	a2 36 54 10 00       	mov    %al,0x105436
  1022f3:	0f b6 05 36 54 10 00 	movzbl 0x105436,%eax
  1022fa:	83 c8 40             	or     $0x40,%eax
  1022fd:	a2 36 54 10 00       	mov    %al,0x105436
  102302:	0f b6 05 36 54 10 00 	movzbl 0x105436,%eax
  102309:	83 e0 7f             	and    $0x7f,%eax
  10230c:	a2 36 54 10 00       	mov    %al,0x105436
  102311:	c6 05 37 54 10 00 00 	movb   $0x0,0x105437
  102318:	66 c7 05 38 54 10 00 	movw   $0xffff,0x105438
  10231f:	ff ff 
  102321:	66 c7 05 3a 54 10 00 	movw   $0x0,0x10543a
  102328:	00 00 
  10232a:	c6 05 3c 54 10 00 00 	movb   $0x0,0x10543c
  102331:	0f b6 05 3d 54 10 00 	movzbl 0x10543d,%eax
  102338:	83 e0 f0             	and    $0xfffffff0,%eax
  10233b:	83 c8 0a             	or     $0xa,%eax
  10233e:	a2 3d 54 10 00       	mov    %al,0x10543d
  102343:	0f b6 05 3d 54 10 00 	movzbl 0x10543d,%eax
  10234a:	83 c8 10             	or     $0x10,%eax
  10234d:	a2 3d 54 10 00       	mov    %al,0x10543d
  102352:	0f b6 05 3d 54 10 00 	movzbl 0x10543d,%eax
  102359:	83 c8 60             	or     $0x60,%eax
  10235c:	a2 3d 54 10 00       	mov    %al,0x10543d
  102361:	0f b6 05 3d 54 10 00 	movzbl 0x10543d,%eax
  102368:	83 c8 80             	or     $0xffffff80,%eax
  10236b:	a2 3d 54 10 00       	mov    %al,0x10543d
  102370:	0f b6 05 3e 54 10 00 	movzbl 0x10543e,%eax
  102377:	83 c8 0f             	or     $0xf,%eax
  10237a:	a2 3e 54 10 00       	mov    %al,0x10543e
  10237f:	0f b6 05 3e 54 10 00 	movzbl 0x10543e,%eax
  102386:	83 e0 ef             	and    $0xffffffef,%eax
  102389:	a2 3e 54 10 00       	mov    %al,0x10543e
  10238e:	0f b6 05 3e 54 10 00 	movzbl 0x10543e,%eax
  102395:	83 e0 df             	and    $0xffffffdf,%eax
  102398:	a2 3e 54 10 00       	mov    %al,0x10543e
  10239d:	0f b6 05 3e 54 10 00 	movzbl 0x10543e,%eax
  1023a4:	83 c8 40             	or     $0x40,%eax
  1023a7:	a2 3e 54 10 00       	mov    %al,0x10543e
  1023ac:	0f b6 05 3e 54 10 00 	movzbl 0x10543e,%eax
  1023b3:	83 e0 7f             	and    $0x7f,%eax
  1023b6:	a2 3e 54 10 00       	mov    %al,0x10543e
  1023bb:	c6 05 3f 54 10 00 00 	movb   $0x0,0x10543f
  1023c2:	66 c7 05 40 54 10 00 	movw   $0xffff,0x105440
  1023c9:	ff ff 
  1023cb:	66 c7 05 42 54 10 00 	movw   $0x0,0x105442
  1023d2:	00 00 
  1023d4:	c6 05 44 54 10 00 00 	movb   $0x0,0x105444
  1023db:	0f b6 05 45 54 10 00 	movzbl 0x105445,%eax
  1023e2:	83 e0 f0             	and    $0xfffffff0,%eax
  1023e5:	83 c8 02             	or     $0x2,%eax
  1023e8:	a2 45 54 10 00       	mov    %al,0x105445
  1023ed:	0f b6 05 45 54 10 00 	movzbl 0x105445,%eax
  1023f4:	83 c8 10             	or     $0x10,%eax
  1023f7:	a2 45 54 10 00       	mov    %al,0x105445
  1023fc:	0f b6 05 45 54 10 00 	movzbl 0x105445,%eax
  102403:	83 c8 60             	or     $0x60,%eax
  102406:	a2 45 54 10 00       	mov    %al,0x105445
  10240b:	0f b6 05 45 54 10 00 	movzbl 0x105445,%eax
  102412:	83 c8 80             	or     $0xffffff80,%eax
  102415:	a2 45 54 10 00       	mov    %al,0x105445
  10241a:	0f b6 05 46 54 10 00 	movzbl 0x105446,%eax
  102421:	83 c8 0f             	or     $0xf,%eax
  102424:	a2 46 54 10 00       	mov    %al,0x105446
  102429:	0f b6 05 46 54 10 00 	movzbl 0x105446,%eax
  102430:	83 e0 ef             	and    $0xffffffef,%eax
  102433:	a2 46 54 10 00       	mov    %al,0x105446
  102438:	0f b6 05 46 54 10 00 	movzbl 0x105446,%eax
  10243f:	83 e0 df             	and    $0xffffffdf,%eax
  102442:	a2 46 54 10 00       	mov    %al,0x105446
  102447:	0f b6 05 46 54 10 00 	movzbl 0x105446,%eax
  10244e:	83 c8 40             	or     $0x40,%eax
  102451:	a2 46 54 10 00       	mov    %al,0x105446
  102456:	0f b6 05 46 54 10 00 	movzbl 0x105446,%eax
  10245d:	83 e0 7f             	and    $0x7f,%eax
  102460:	a2 46 54 10 00       	mov    %al,0x105446
  102465:	c6 05 47 54 10 00 00 	movb   $0x0,0x105447
  10246c:	6a 06                	push   $0x6
  10246e:	68 20 54 10 00       	push   $0x105420
  102473:	e8 78 fc ff ff       	call   1020f0 <lgdt>
  102478:	83 c4 08             	add    $0x8,%esp
  10247b:	90                   	nop
  10247c:	c9                   	leave  
  10247d:	c3                   	ret    

0010247e <lidt>:
  10247e:	55                   	push   %ebp
  10247f:	89 e5                	mov    %esp,%ebp
  102481:	83 ec 10             	sub    $0x10,%esp
  102484:	8b 45 0c             	mov    0xc(%ebp),%eax
  102487:	83 e8 01             	sub    $0x1,%eax
  10248a:	66 89 45 fa          	mov    %ax,-0x6(%ebp)
  10248e:	8b 45 08             	mov    0x8(%ebp),%eax
  102491:	66 89 45 fc          	mov    %ax,-0x4(%ebp)
  102495:	8b 45 08             	mov    0x8(%ebp),%eax
  102498:	c1 e8 10             	shr    $0x10,%eax
  10249b:	66 89 45 fe          	mov    %ax,-0x2(%ebp)
  10249f:	8d 45 fa             	lea    -0x6(%ebp),%eax
  1024a2:	0f 01 18             	lidtl  (%eax)
  1024a5:	90                   	nop
  1024a6:	c9                   	leave  
  1024a7:	c3                   	ret    

001024a8 <init_8259>:
  1024a8:	55                   	push   %ebp
  1024a9:	89 e5                	mov    %esp,%ebp
  1024ab:	90                   	nop
  1024ac:	5d                   	pop    %ebp
  1024ad:	c3                   	ret    

001024ae <isr_handler>:
  1024ae:	55                   	push   %ebp
  1024af:	89 e5                	mov    %esp,%ebp
  1024b1:	83 ec 08             	sub    $0x8,%esp
  1024b4:	8b 45 08             	mov    0x8(%ebp),%eax
  1024b7:	8b 40 24             	mov    0x24(%eax),%eax
  1024ba:	83 ec 08             	sub    $0x8,%esp
  1024bd:	50                   	push   %eax
  1024be:	68 d4 42 10 00       	push   $0x1042d4
  1024c3:	e8 ec f0 ff ff       	call   1015b4 <printk>
  1024c8:	83 c4 10             	add    $0x10,%esp
  1024cb:	8b 45 08             	mov    0x8(%ebp),%eax
  1024ce:	8b 40 24             	mov    0x24(%eax),%eax
  1024d1:	8b 04 85 60 5c 10 00 	mov    0x105c60(,%eax,4),%eax
  1024d8:	85 c0                	test   %eax,%eax
  1024da:	74 1a                	je     1024f6 <isr_handler+0x48>
  1024dc:	8b 45 08             	mov    0x8(%ebp),%eax
  1024df:	8b 40 24             	mov    0x24(%eax),%eax
  1024e2:	8b 04 85 60 5c 10 00 	mov    0x105c60(,%eax,4),%eax
  1024e9:	83 ec 0c             	sub    $0xc,%esp
  1024ec:	ff 75 08             	push   0x8(%ebp)
  1024ef:	ff d0                	call   *%eax
  1024f1:	83 c4 10             	add    $0x10,%esp
  1024f4:	eb 18                	jmp    10250e <isr_handler+0x60>
  1024f6:	8b 45 08             	mov    0x8(%ebp),%eax
  1024f9:	8b 40 24             	mov    0x24(%eax),%eax
  1024fc:	50                   	push   %eax
  1024fd:	68 d8 42 10 00       	push   $0x1042d8
  102502:	6a 00                	push   $0x0
  102504:	6a 01                	push   $0x1
  102506:	e8 da f0 ff ff       	call   1015e5 <printk_color>
  10250b:	83 c4 10             	add    $0x10,%esp
  10250e:	90                   	nop
  10250f:	c9                   	leave  
  102510:	c3                   	ret    

00102511 <init_idt>:
  102511:	55                   	push   %ebp
  102512:	89 e5                	mov    %esp,%ebp
  102514:	b8 ac 35 10 00       	mov    $0x1035ac,%eax
  102519:	66 a3 60 54 10 00    	mov    %ax,0x105460
  10251f:	66 c7 05 62 54 10 00 	movw   $0x8,0x105462
  102526:	08 00 
  102528:	0f b6 05 64 54 10 00 	movzbl 0x105464,%eax
  10252f:	83 e0 e0             	and    $0xffffffe0,%eax
  102532:	a2 64 54 10 00       	mov    %al,0x105464
  102537:	0f b6 05 64 54 10 00 	movzbl 0x105464,%eax
  10253e:	83 e0 1f             	and    $0x1f,%eax
  102541:	a2 64 54 10 00       	mov    %al,0x105464
  102546:	0f b6 05 65 54 10 00 	movzbl 0x105465,%eax
  10254d:	83 e0 f0             	and    $0xfffffff0,%eax
  102550:	83 c8 0e             	or     $0xe,%eax
  102553:	a2 65 54 10 00       	mov    %al,0x105465
  102558:	0f b6 05 65 54 10 00 	movzbl 0x105465,%eax
  10255f:	83 e0 ef             	and    $0xffffffef,%eax
  102562:	a2 65 54 10 00       	mov    %al,0x105465
  102567:	0f b6 05 65 54 10 00 	movzbl 0x105465,%eax
  10256e:	83 e0 9f             	and    $0xffffff9f,%eax
  102571:	a2 65 54 10 00       	mov    %al,0x105465
  102576:	0f b6 05 65 54 10 00 	movzbl 0x105465,%eax
  10257d:	83 c8 80             	or     $0xffffff80,%eax
  102580:	a2 65 54 10 00       	mov    %al,0x105465
  102585:	b8 ac 35 10 00       	mov    $0x1035ac,%eax
  10258a:	c1 e8 10             	shr    $0x10,%eax
  10258d:	66 a3 66 54 10 00    	mov    %ax,0x105466
  102593:	b8 b7 35 10 00       	mov    $0x1035b7,%eax
  102598:	66 a3 68 54 10 00    	mov    %ax,0x105468
  10259e:	66 c7 05 6a 54 10 00 	movw   $0x8,0x10546a
  1025a5:	08 00 
  1025a7:	0f b6 05 6c 54 10 00 	movzbl 0x10546c,%eax
  1025ae:	83 e0 e0             	and    $0xffffffe0,%eax
  1025b1:	a2 6c 54 10 00       	mov    %al,0x10546c
  1025b6:	0f b6 05 6c 54 10 00 	movzbl 0x10546c,%eax
  1025bd:	83 e0 1f             	and    $0x1f,%eax
  1025c0:	a2 6c 54 10 00       	mov    %al,0x10546c
  1025c5:	0f b6 05 6d 54 10 00 	movzbl 0x10546d,%eax
  1025cc:	83 e0 f0             	and    $0xfffffff0,%eax
  1025cf:	83 c8 0e             	or     $0xe,%eax
  1025d2:	a2 6d 54 10 00       	mov    %al,0x10546d
  1025d7:	0f b6 05 6d 54 10 00 	movzbl 0x10546d,%eax
  1025de:	83 e0 ef             	and    $0xffffffef,%eax
  1025e1:	a2 6d 54 10 00       	mov    %al,0x10546d
  1025e6:	0f b6 05 6d 54 10 00 	movzbl 0x10546d,%eax
  1025ed:	83 e0 9f             	and    $0xffffff9f,%eax
  1025f0:	a2 6d 54 10 00       	mov    %al,0x10546d
  1025f5:	0f b6 05 6d 54 10 00 	movzbl 0x10546d,%eax
  1025fc:	83 c8 80             	or     $0xffffff80,%eax
  1025ff:	a2 6d 54 10 00       	mov    %al,0x10546d
  102604:	b8 b7 35 10 00       	mov    $0x1035b7,%eax
  102609:	c1 e8 10             	shr    $0x10,%eax
  10260c:	66 a3 6e 54 10 00    	mov    %ax,0x10546e
  102612:	b8 c2 35 10 00       	mov    $0x1035c2,%eax
  102617:	66 a3 70 54 10 00    	mov    %ax,0x105470
  10261d:	66 c7 05 72 54 10 00 	movw   $0x8,0x105472
  102624:	08 00 
  102626:	0f b6 05 74 54 10 00 	movzbl 0x105474,%eax
  10262d:	83 e0 e0             	and    $0xffffffe0,%eax
  102630:	a2 74 54 10 00       	mov    %al,0x105474
  102635:	0f b6 05 74 54 10 00 	movzbl 0x105474,%eax
  10263c:	83 e0 1f             	and    $0x1f,%eax
  10263f:	a2 74 54 10 00       	mov    %al,0x105474
  102644:	0f b6 05 75 54 10 00 	movzbl 0x105475,%eax
  10264b:	83 e0 f0             	and    $0xfffffff0,%eax
  10264e:	83 c8 0e             	or     $0xe,%eax
  102651:	a2 75 54 10 00       	mov    %al,0x105475
  102656:	0f b6 05 75 54 10 00 	movzbl 0x105475,%eax
  10265d:	83 e0 ef             	and    $0xffffffef,%eax
  102660:	a2 75 54 10 00       	mov    %al,0x105475
  102665:	0f b6 05 75 54 10 00 	movzbl 0x105475,%eax
  10266c:	83 e0 9f             	and    $0xffffff9f,%eax
  10266f:	a2 75 54 10 00       	mov    %al,0x105475
  102674:	0f b6 05 75 54 10 00 	movzbl 0x105475,%eax
  10267b:	83 c8 80             	or     $0xffffff80,%eax
  10267e:	a2 75 54 10 00       	mov    %al,0x105475
  102683:	b8 c2 35 10 00       	mov    $0x1035c2,%eax
  102688:	c1 e8 10             	shr    $0x10,%eax
  10268b:	66 a3 76 54 10 00    	mov    %ax,0x105476
  102691:	b8 cd 35 10 00       	mov    $0x1035cd,%eax
  102696:	66 a3 78 54 10 00    	mov    %ax,0x105478
  10269c:	66 c7 05 7a 54 10 00 	movw   $0x8,0x10547a
  1026a3:	08 00 
  1026a5:	0f b6 05 7c 54 10 00 	movzbl 0x10547c,%eax
  1026ac:	83 e0 e0             	and    $0xffffffe0,%eax
  1026af:	a2 7c 54 10 00       	mov    %al,0x10547c
  1026b4:	0f b6 05 7c 54 10 00 	movzbl 0x10547c,%eax
  1026bb:	83 e0 1f             	and    $0x1f,%eax
  1026be:	a2 7c 54 10 00       	mov    %al,0x10547c
  1026c3:	0f b6 05 7d 54 10 00 	movzbl 0x10547d,%eax
  1026ca:	83 e0 f0             	and    $0xfffffff0,%eax
  1026cd:	83 c8 0e             	or     $0xe,%eax
  1026d0:	a2 7d 54 10 00       	mov    %al,0x10547d
  1026d5:	0f b6 05 7d 54 10 00 	movzbl 0x10547d,%eax
  1026dc:	83 e0 ef             	and    $0xffffffef,%eax
  1026df:	a2 7d 54 10 00       	mov    %al,0x10547d
  1026e4:	0f b6 05 7d 54 10 00 	movzbl 0x10547d,%eax
  1026eb:	83 e0 9f             	and    $0xffffff9f,%eax
  1026ee:	a2 7d 54 10 00       	mov    %al,0x10547d
  1026f3:	0f b6 05 7d 54 10 00 	movzbl 0x10547d,%eax
  1026fa:	83 c8 80             	or     $0xffffff80,%eax
  1026fd:	a2 7d 54 10 00       	mov    %al,0x10547d
  102702:	b8 cd 35 10 00       	mov    $0x1035cd,%eax
  102707:	c1 e8 10             	shr    $0x10,%eax
  10270a:	66 a3 7e 54 10 00    	mov    %ax,0x10547e
  102710:	b8 d8 35 10 00       	mov    $0x1035d8,%eax
  102715:	66 a3 80 54 10 00    	mov    %ax,0x105480
  10271b:	66 c7 05 82 54 10 00 	movw   $0x8,0x105482
  102722:	08 00 
  102724:	0f b6 05 84 54 10 00 	movzbl 0x105484,%eax
  10272b:	83 e0 e0             	and    $0xffffffe0,%eax
  10272e:	a2 84 54 10 00       	mov    %al,0x105484
  102733:	0f b6 05 84 54 10 00 	movzbl 0x105484,%eax
  10273a:	83 e0 1f             	and    $0x1f,%eax
  10273d:	a2 84 54 10 00       	mov    %al,0x105484
  102742:	0f b6 05 85 54 10 00 	movzbl 0x105485,%eax
  102749:	83 e0 f0             	and    $0xfffffff0,%eax
  10274c:	83 c8 0e             	or     $0xe,%eax
  10274f:	a2 85 54 10 00       	mov    %al,0x105485
  102754:	0f b6 05 85 54 10 00 	movzbl 0x105485,%eax
  10275b:	83 e0 ef             	and    $0xffffffef,%eax
  10275e:	a2 85 54 10 00       	mov    %al,0x105485
  102763:	0f b6 05 85 54 10 00 	movzbl 0x105485,%eax
  10276a:	83 e0 9f             	and    $0xffffff9f,%eax
  10276d:	a2 85 54 10 00       	mov    %al,0x105485
  102772:	0f b6 05 85 54 10 00 	movzbl 0x105485,%eax
  102779:	83 c8 80             	or     $0xffffff80,%eax
  10277c:	a2 85 54 10 00       	mov    %al,0x105485
  102781:	b8 d8 35 10 00       	mov    $0x1035d8,%eax
  102786:	c1 e8 10             	shr    $0x10,%eax
  102789:	66 a3 86 54 10 00    	mov    %ax,0x105486
  10278f:	b8 e3 35 10 00       	mov    $0x1035e3,%eax
  102794:	66 a3 88 54 10 00    	mov    %ax,0x105488
  10279a:	66 c7 05 8a 54 10 00 	movw   $0x8,0x10548a
  1027a1:	08 00 
  1027a3:	0f b6 05 8c 54 10 00 	movzbl 0x10548c,%eax
  1027aa:	83 e0 e0             	and    $0xffffffe0,%eax
  1027ad:	a2 8c 54 10 00       	mov    %al,0x10548c
  1027b2:	0f b6 05 8c 54 10 00 	movzbl 0x10548c,%eax
  1027b9:	83 e0 1f             	and    $0x1f,%eax
  1027bc:	a2 8c 54 10 00       	mov    %al,0x10548c
  1027c1:	0f b6 05 8d 54 10 00 	movzbl 0x10548d,%eax
  1027c8:	83 e0 f0             	and    $0xfffffff0,%eax
  1027cb:	83 c8 0e             	or     $0xe,%eax
  1027ce:	a2 8d 54 10 00       	mov    %al,0x10548d
  1027d3:	0f b6 05 8d 54 10 00 	movzbl 0x10548d,%eax
  1027da:	83 e0 ef             	and    $0xffffffef,%eax
  1027dd:	a2 8d 54 10 00       	mov    %al,0x10548d
  1027e2:	0f b6 05 8d 54 10 00 	movzbl 0x10548d,%eax
  1027e9:	83 e0 9f             	and    $0xffffff9f,%eax
  1027ec:	a2 8d 54 10 00       	mov    %al,0x10548d
  1027f1:	0f b6 05 8d 54 10 00 	movzbl 0x10548d,%eax
  1027f8:	83 c8 80             	or     $0xffffff80,%eax
  1027fb:	a2 8d 54 10 00       	mov    %al,0x10548d
  102800:	b8 e3 35 10 00       	mov    $0x1035e3,%eax
  102805:	c1 e8 10             	shr    $0x10,%eax
  102808:	66 a3 8e 54 10 00    	mov    %ax,0x10548e
  10280e:	b8 ee 35 10 00       	mov    $0x1035ee,%eax
  102813:	66 a3 90 54 10 00    	mov    %ax,0x105490
  102819:	66 c7 05 92 54 10 00 	movw   $0x8,0x105492
  102820:	08 00 
  102822:	0f b6 05 94 54 10 00 	movzbl 0x105494,%eax
  102829:	83 e0 e0             	and    $0xffffffe0,%eax
  10282c:	a2 94 54 10 00       	mov    %al,0x105494
  102831:	0f b6 05 94 54 10 00 	movzbl 0x105494,%eax
  102838:	83 e0 1f             	and    $0x1f,%eax
  10283b:	a2 94 54 10 00       	mov    %al,0x105494
  102840:	0f b6 05 95 54 10 00 	movzbl 0x105495,%eax
  102847:	83 e0 f0             	and    $0xfffffff0,%eax
  10284a:	83 c8 0e             	or     $0xe,%eax
  10284d:	a2 95 54 10 00       	mov    %al,0x105495
  102852:	0f b6 05 95 54 10 00 	movzbl 0x105495,%eax
  102859:	83 e0 ef             	and    $0xffffffef,%eax
  10285c:	a2 95 54 10 00       	mov    %al,0x105495
  102861:	0f b6 05 95 54 10 00 	movzbl 0x105495,%eax
  102868:	83 e0 9f             	and    $0xffffff9f,%eax
  10286b:	a2 95 54 10 00       	mov    %al,0x105495
  102870:	0f b6 05 95 54 10 00 	movzbl 0x105495,%eax
  102877:	83 c8 80             	or     $0xffffff80,%eax
  10287a:	a2 95 54 10 00       	mov    %al,0x105495
  10287f:	b8 ee 35 10 00       	mov    $0x1035ee,%eax
  102884:	c1 e8 10             	shr    $0x10,%eax
  102887:	66 a3 96 54 10 00    	mov    %ax,0x105496
  10288d:	b8 f9 35 10 00       	mov    $0x1035f9,%eax
  102892:	66 a3 98 54 10 00    	mov    %ax,0x105498
  102898:	66 c7 05 9a 54 10 00 	movw   $0x8,0x10549a
  10289f:	08 00 
  1028a1:	0f b6 05 9c 54 10 00 	movzbl 0x10549c,%eax
  1028a8:	83 e0 e0             	and    $0xffffffe0,%eax
  1028ab:	a2 9c 54 10 00       	mov    %al,0x10549c
  1028b0:	0f b6 05 9c 54 10 00 	movzbl 0x10549c,%eax
  1028b7:	83 e0 1f             	and    $0x1f,%eax
  1028ba:	a2 9c 54 10 00       	mov    %al,0x10549c
  1028bf:	0f b6 05 9d 54 10 00 	movzbl 0x10549d,%eax
  1028c6:	83 e0 f0             	and    $0xfffffff0,%eax
  1028c9:	83 c8 0e             	or     $0xe,%eax
  1028cc:	a2 9d 54 10 00       	mov    %al,0x10549d
  1028d1:	0f b6 05 9d 54 10 00 	movzbl 0x10549d,%eax
  1028d8:	83 e0 ef             	and    $0xffffffef,%eax
  1028db:	a2 9d 54 10 00       	mov    %al,0x10549d
  1028e0:	0f b6 05 9d 54 10 00 	movzbl 0x10549d,%eax
  1028e7:	83 e0 9f             	and    $0xffffff9f,%eax
  1028ea:	a2 9d 54 10 00       	mov    %al,0x10549d
  1028ef:	0f b6 05 9d 54 10 00 	movzbl 0x10549d,%eax
  1028f6:	83 c8 80             	or     $0xffffff80,%eax
  1028f9:	a2 9d 54 10 00       	mov    %al,0x10549d
  1028fe:	b8 f9 35 10 00       	mov    $0x1035f9,%eax
  102903:	c1 e8 10             	shr    $0x10,%eax
  102906:	66 a3 9e 54 10 00    	mov    %ax,0x10549e
  10290c:	b8 04 36 10 00       	mov    $0x103604,%eax
  102911:	66 a3 a0 54 10 00    	mov    %ax,0x1054a0
  102917:	66 c7 05 a2 54 10 00 	movw   $0x8,0x1054a2
  10291e:	08 00 
  102920:	0f b6 05 a4 54 10 00 	movzbl 0x1054a4,%eax
  102927:	83 e0 e0             	and    $0xffffffe0,%eax
  10292a:	a2 a4 54 10 00       	mov    %al,0x1054a4
  10292f:	0f b6 05 a4 54 10 00 	movzbl 0x1054a4,%eax
  102936:	83 e0 1f             	and    $0x1f,%eax
  102939:	a2 a4 54 10 00       	mov    %al,0x1054a4
  10293e:	0f b6 05 a5 54 10 00 	movzbl 0x1054a5,%eax
  102945:	83 e0 f0             	and    $0xfffffff0,%eax
  102948:	83 c8 0e             	or     $0xe,%eax
  10294b:	a2 a5 54 10 00       	mov    %al,0x1054a5
  102950:	0f b6 05 a5 54 10 00 	movzbl 0x1054a5,%eax
  102957:	83 e0 ef             	and    $0xffffffef,%eax
  10295a:	a2 a5 54 10 00       	mov    %al,0x1054a5
  10295f:	0f b6 05 a5 54 10 00 	movzbl 0x1054a5,%eax
  102966:	83 e0 9f             	and    $0xffffff9f,%eax
  102969:	a2 a5 54 10 00       	mov    %al,0x1054a5
  10296e:	0f b6 05 a5 54 10 00 	movzbl 0x1054a5,%eax
  102975:	83 c8 80             	or     $0xffffff80,%eax
  102978:	a2 a5 54 10 00       	mov    %al,0x1054a5
  10297d:	b8 04 36 10 00       	mov    $0x103604,%eax
  102982:	c1 e8 10             	shr    $0x10,%eax
  102985:	66 a3 a6 54 10 00    	mov    %ax,0x1054a6
  10298b:	b8 0d 36 10 00       	mov    $0x10360d,%eax
  102990:	66 a3 a8 54 10 00    	mov    %ax,0x1054a8
  102996:	66 c7 05 aa 54 10 00 	movw   $0x8,0x1054aa
  10299d:	08 00 
  10299f:	0f b6 05 ac 54 10 00 	movzbl 0x1054ac,%eax
  1029a6:	83 e0 e0             	and    $0xffffffe0,%eax
  1029a9:	a2 ac 54 10 00       	mov    %al,0x1054ac
  1029ae:	0f b6 05 ac 54 10 00 	movzbl 0x1054ac,%eax
  1029b5:	83 e0 1f             	and    $0x1f,%eax
  1029b8:	a2 ac 54 10 00       	mov    %al,0x1054ac
  1029bd:	0f b6 05 ad 54 10 00 	movzbl 0x1054ad,%eax
  1029c4:	83 e0 f0             	and    $0xfffffff0,%eax
  1029c7:	83 c8 0e             	or     $0xe,%eax
  1029ca:	a2 ad 54 10 00       	mov    %al,0x1054ad
  1029cf:	0f b6 05 ad 54 10 00 	movzbl 0x1054ad,%eax
  1029d6:	83 e0 ef             	and    $0xffffffef,%eax
  1029d9:	a2 ad 54 10 00       	mov    %al,0x1054ad
  1029de:	0f b6 05 ad 54 10 00 	movzbl 0x1054ad,%eax
  1029e5:	83 e0 9f             	and    $0xffffff9f,%eax
  1029e8:	a2 ad 54 10 00       	mov    %al,0x1054ad
  1029ed:	0f b6 05 ad 54 10 00 	movzbl 0x1054ad,%eax
  1029f4:	83 c8 80             	or     $0xffffff80,%eax
  1029f7:	a2 ad 54 10 00       	mov    %al,0x1054ad
  1029fc:	b8 0d 36 10 00       	mov    $0x10360d,%eax
  102a01:	c1 e8 10             	shr    $0x10,%eax
  102a04:	66 a3 ae 54 10 00    	mov    %ax,0x1054ae
  102a0a:	b8 18 36 10 00       	mov    $0x103618,%eax
  102a0f:	66 a3 b0 54 10 00    	mov    %ax,0x1054b0
  102a15:	66 c7 05 b2 54 10 00 	movw   $0x8,0x1054b2
  102a1c:	08 00 
  102a1e:	0f b6 05 b4 54 10 00 	movzbl 0x1054b4,%eax
  102a25:	83 e0 e0             	and    $0xffffffe0,%eax
  102a28:	a2 b4 54 10 00       	mov    %al,0x1054b4
  102a2d:	0f b6 05 b4 54 10 00 	movzbl 0x1054b4,%eax
  102a34:	83 e0 1f             	and    $0x1f,%eax
  102a37:	a2 b4 54 10 00       	mov    %al,0x1054b4
  102a3c:	0f b6 05 b5 54 10 00 	movzbl 0x1054b5,%eax
  102a43:	83 e0 f0             	and    $0xfffffff0,%eax
  102a46:	83 c8 0e             	or     $0xe,%eax
  102a49:	a2 b5 54 10 00       	mov    %al,0x1054b5
  102a4e:	0f b6 05 b5 54 10 00 	movzbl 0x1054b5,%eax
  102a55:	83 e0 ef             	and    $0xffffffef,%eax
  102a58:	a2 b5 54 10 00       	mov    %al,0x1054b5
  102a5d:	0f b6 05 b5 54 10 00 	movzbl 0x1054b5,%eax
  102a64:	83 e0 9f             	and    $0xffffff9f,%eax
  102a67:	a2 b5 54 10 00       	mov    %al,0x1054b5
  102a6c:	0f b6 05 b5 54 10 00 	movzbl 0x1054b5,%eax
  102a73:	83 c8 80             	or     $0xffffff80,%eax
  102a76:	a2 b5 54 10 00       	mov    %al,0x1054b5
  102a7b:	b8 18 36 10 00       	mov    $0x103618,%eax
  102a80:	c1 e8 10             	shr    $0x10,%eax
  102a83:	66 a3 b6 54 10 00    	mov    %ax,0x1054b6
  102a89:	b8 21 36 10 00       	mov    $0x103621,%eax
  102a8e:	66 a3 b8 54 10 00    	mov    %ax,0x1054b8
  102a94:	66 c7 05 ba 54 10 00 	movw   $0x8,0x1054ba
  102a9b:	08 00 
  102a9d:	0f b6 05 bc 54 10 00 	movzbl 0x1054bc,%eax
  102aa4:	83 e0 e0             	and    $0xffffffe0,%eax
  102aa7:	a2 bc 54 10 00       	mov    %al,0x1054bc
  102aac:	0f b6 05 bc 54 10 00 	movzbl 0x1054bc,%eax
  102ab3:	83 e0 1f             	and    $0x1f,%eax
  102ab6:	a2 bc 54 10 00       	mov    %al,0x1054bc
  102abb:	0f b6 05 bd 54 10 00 	movzbl 0x1054bd,%eax
  102ac2:	83 e0 f0             	and    $0xfffffff0,%eax
  102ac5:	83 c8 0e             	or     $0xe,%eax
  102ac8:	a2 bd 54 10 00       	mov    %al,0x1054bd
  102acd:	0f b6 05 bd 54 10 00 	movzbl 0x1054bd,%eax
  102ad4:	83 e0 ef             	and    $0xffffffef,%eax
  102ad7:	a2 bd 54 10 00       	mov    %al,0x1054bd
  102adc:	0f b6 05 bd 54 10 00 	movzbl 0x1054bd,%eax
  102ae3:	83 e0 9f             	and    $0xffffff9f,%eax
  102ae6:	a2 bd 54 10 00       	mov    %al,0x1054bd
  102aeb:	0f b6 05 bd 54 10 00 	movzbl 0x1054bd,%eax
  102af2:	83 c8 80             	or     $0xffffff80,%eax
  102af5:	a2 bd 54 10 00       	mov    %al,0x1054bd
  102afa:	b8 21 36 10 00       	mov    $0x103621,%eax
  102aff:	c1 e8 10             	shr    $0x10,%eax
  102b02:	66 a3 be 54 10 00    	mov    %ax,0x1054be
  102b08:	b8 2a 36 10 00       	mov    $0x10362a,%eax
  102b0d:	66 a3 c0 54 10 00    	mov    %ax,0x1054c0
  102b13:	66 c7 05 c2 54 10 00 	movw   $0x8,0x1054c2
  102b1a:	08 00 
  102b1c:	0f b6 05 c4 54 10 00 	movzbl 0x1054c4,%eax
  102b23:	83 e0 e0             	and    $0xffffffe0,%eax
  102b26:	a2 c4 54 10 00       	mov    %al,0x1054c4
  102b2b:	0f b6 05 c4 54 10 00 	movzbl 0x1054c4,%eax
  102b32:	83 e0 1f             	and    $0x1f,%eax
  102b35:	a2 c4 54 10 00       	mov    %al,0x1054c4
  102b3a:	0f b6 05 c5 54 10 00 	movzbl 0x1054c5,%eax
  102b41:	83 e0 f0             	and    $0xfffffff0,%eax
  102b44:	83 c8 0e             	or     $0xe,%eax
  102b47:	a2 c5 54 10 00       	mov    %al,0x1054c5
  102b4c:	0f b6 05 c5 54 10 00 	movzbl 0x1054c5,%eax
  102b53:	83 e0 ef             	and    $0xffffffef,%eax
  102b56:	a2 c5 54 10 00       	mov    %al,0x1054c5
  102b5b:	0f b6 05 c5 54 10 00 	movzbl 0x1054c5,%eax
  102b62:	83 e0 9f             	and    $0xffffff9f,%eax
  102b65:	a2 c5 54 10 00       	mov    %al,0x1054c5
  102b6a:	0f b6 05 c5 54 10 00 	movzbl 0x1054c5,%eax
  102b71:	83 c8 80             	or     $0xffffff80,%eax
  102b74:	a2 c5 54 10 00       	mov    %al,0x1054c5
  102b79:	b8 2a 36 10 00       	mov    $0x10362a,%eax
  102b7e:	c1 e8 10             	shr    $0x10,%eax
  102b81:	66 a3 c6 54 10 00    	mov    %ax,0x1054c6
  102b87:	b8 33 36 10 00       	mov    $0x103633,%eax
  102b8c:	66 a3 c8 54 10 00    	mov    %ax,0x1054c8
  102b92:	66 c7 05 ca 54 10 00 	movw   $0x8,0x1054ca
  102b99:	08 00 
  102b9b:	0f b6 05 cc 54 10 00 	movzbl 0x1054cc,%eax
  102ba2:	83 e0 e0             	and    $0xffffffe0,%eax
  102ba5:	a2 cc 54 10 00       	mov    %al,0x1054cc
  102baa:	0f b6 05 cc 54 10 00 	movzbl 0x1054cc,%eax
  102bb1:	83 e0 1f             	and    $0x1f,%eax
  102bb4:	a2 cc 54 10 00       	mov    %al,0x1054cc
  102bb9:	0f b6 05 cd 54 10 00 	movzbl 0x1054cd,%eax
  102bc0:	83 e0 f0             	and    $0xfffffff0,%eax
  102bc3:	83 c8 0e             	or     $0xe,%eax
  102bc6:	a2 cd 54 10 00       	mov    %al,0x1054cd
  102bcb:	0f b6 05 cd 54 10 00 	movzbl 0x1054cd,%eax
  102bd2:	83 e0 ef             	and    $0xffffffef,%eax
  102bd5:	a2 cd 54 10 00       	mov    %al,0x1054cd
  102bda:	0f b6 05 cd 54 10 00 	movzbl 0x1054cd,%eax
  102be1:	83 e0 9f             	and    $0xffffff9f,%eax
  102be4:	a2 cd 54 10 00       	mov    %al,0x1054cd
  102be9:	0f b6 05 cd 54 10 00 	movzbl 0x1054cd,%eax
  102bf0:	83 c8 80             	or     $0xffffff80,%eax
  102bf3:	a2 cd 54 10 00       	mov    %al,0x1054cd
  102bf8:	b8 33 36 10 00       	mov    $0x103633,%eax
  102bfd:	c1 e8 10             	shr    $0x10,%eax
  102c00:	66 a3 ce 54 10 00    	mov    %ax,0x1054ce
  102c06:	b8 3c 36 10 00       	mov    $0x10363c,%eax
  102c0b:	66 a3 d0 54 10 00    	mov    %ax,0x1054d0
  102c11:	66 c7 05 d2 54 10 00 	movw   $0x8,0x1054d2
  102c18:	08 00 
  102c1a:	0f b6 05 d4 54 10 00 	movzbl 0x1054d4,%eax
  102c21:	83 e0 e0             	and    $0xffffffe0,%eax
  102c24:	a2 d4 54 10 00       	mov    %al,0x1054d4
  102c29:	0f b6 05 d4 54 10 00 	movzbl 0x1054d4,%eax
  102c30:	83 e0 1f             	and    $0x1f,%eax
  102c33:	a2 d4 54 10 00       	mov    %al,0x1054d4
  102c38:	0f b6 05 d5 54 10 00 	movzbl 0x1054d5,%eax
  102c3f:	83 e0 f0             	and    $0xfffffff0,%eax
  102c42:	83 c8 0e             	or     $0xe,%eax
  102c45:	a2 d5 54 10 00       	mov    %al,0x1054d5
  102c4a:	0f b6 05 d5 54 10 00 	movzbl 0x1054d5,%eax
  102c51:	83 e0 ef             	and    $0xffffffef,%eax
  102c54:	a2 d5 54 10 00       	mov    %al,0x1054d5
  102c59:	0f b6 05 d5 54 10 00 	movzbl 0x1054d5,%eax
  102c60:	83 e0 9f             	and    $0xffffff9f,%eax
  102c63:	a2 d5 54 10 00       	mov    %al,0x1054d5
  102c68:	0f b6 05 d5 54 10 00 	movzbl 0x1054d5,%eax
  102c6f:	83 c8 80             	or     $0xffffff80,%eax
  102c72:	a2 d5 54 10 00       	mov    %al,0x1054d5
  102c77:	b8 3c 36 10 00       	mov    $0x10363c,%eax
  102c7c:	c1 e8 10             	shr    $0x10,%eax
  102c7f:	66 a3 d6 54 10 00    	mov    %ax,0x1054d6
  102c85:	b8 45 36 10 00       	mov    $0x103645,%eax
  102c8a:	66 a3 d8 54 10 00    	mov    %ax,0x1054d8
  102c90:	66 c7 05 da 54 10 00 	movw   $0x8,0x1054da
  102c97:	08 00 
  102c99:	0f b6 05 dc 54 10 00 	movzbl 0x1054dc,%eax
  102ca0:	83 e0 e0             	and    $0xffffffe0,%eax
  102ca3:	a2 dc 54 10 00       	mov    %al,0x1054dc
  102ca8:	0f b6 05 dc 54 10 00 	movzbl 0x1054dc,%eax
  102caf:	83 e0 1f             	and    $0x1f,%eax
  102cb2:	a2 dc 54 10 00       	mov    %al,0x1054dc
  102cb7:	0f b6 05 dd 54 10 00 	movzbl 0x1054dd,%eax
  102cbe:	83 e0 f0             	and    $0xfffffff0,%eax
  102cc1:	83 c8 0e             	or     $0xe,%eax
  102cc4:	a2 dd 54 10 00       	mov    %al,0x1054dd
  102cc9:	0f b6 05 dd 54 10 00 	movzbl 0x1054dd,%eax
  102cd0:	83 e0 ef             	and    $0xffffffef,%eax
  102cd3:	a2 dd 54 10 00       	mov    %al,0x1054dd
  102cd8:	0f b6 05 dd 54 10 00 	movzbl 0x1054dd,%eax
  102cdf:	83 e0 9f             	and    $0xffffff9f,%eax
  102ce2:	a2 dd 54 10 00       	mov    %al,0x1054dd
  102ce7:	0f b6 05 dd 54 10 00 	movzbl 0x1054dd,%eax
  102cee:	83 c8 80             	or     $0xffffff80,%eax
  102cf1:	a2 dd 54 10 00       	mov    %al,0x1054dd
  102cf6:	b8 45 36 10 00       	mov    $0x103645,%eax
  102cfb:	c1 e8 10             	shr    $0x10,%eax
  102cfe:	66 a3 de 54 10 00    	mov    %ax,0x1054de
  102d04:	b8 50 36 10 00       	mov    $0x103650,%eax
  102d09:	66 a3 e0 54 10 00    	mov    %ax,0x1054e0
  102d0f:	66 c7 05 e2 54 10 00 	movw   $0x8,0x1054e2
  102d16:	08 00 
  102d18:	0f b6 05 e4 54 10 00 	movzbl 0x1054e4,%eax
  102d1f:	83 e0 e0             	and    $0xffffffe0,%eax
  102d22:	a2 e4 54 10 00       	mov    %al,0x1054e4
  102d27:	0f b6 05 e4 54 10 00 	movzbl 0x1054e4,%eax
  102d2e:	83 e0 1f             	and    $0x1f,%eax
  102d31:	a2 e4 54 10 00       	mov    %al,0x1054e4
  102d36:	0f b6 05 e5 54 10 00 	movzbl 0x1054e5,%eax
  102d3d:	83 e0 f0             	and    $0xfffffff0,%eax
  102d40:	83 c8 0e             	or     $0xe,%eax
  102d43:	a2 e5 54 10 00       	mov    %al,0x1054e5
  102d48:	0f b6 05 e5 54 10 00 	movzbl 0x1054e5,%eax
  102d4f:	83 e0 ef             	and    $0xffffffef,%eax
  102d52:	a2 e5 54 10 00       	mov    %al,0x1054e5
  102d57:	0f b6 05 e5 54 10 00 	movzbl 0x1054e5,%eax
  102d5e:	83 e0 9f             	and    $0xffffff9f,%eax
  102d61:	a2 e5 54 10 00       	mov    %al,0x1054e5
  102d66:	0f b6 05 e5 54 10 00 	movzbl 0x1054e5,%eax
  102d6d:	83 c8 80             	or     $0xffffff80,%eax
  102d70:	a2 e5 54 10 00       	mov    %al,0x1054e5
  102d75:	b8 50 36 10 00       	mov    $0x103650,%eax
  102d7a:	c1 e8 10             	shr    $0x10,%eax
  102d7d:	66 a3 e6 54 10 00    	mov    %ax,0x1054e6
  102d83:	b8 5b 36 10 00       	mov    $0x10365b,%eax
  102d88:	66 a3 e8 54 10 00    	mov    %ax,0x1054e8
  102d8e:	66 c7 05 ea 54 10 00 	movw   $0x8,0x1054ea
  102d95:	08 00 
  102d97:	0f b6 05 ec 54 10 00 	movzbl 0x1054ec,%eax
  102d9e:	83 e0 e0             	and    $0xffffffe0,%eax
  102da1:	a2 ec 54 10 00       	mov    %al,0x1054ec
  102da6:	0f b6 05 ec 54 10 00 	movzbl 0x1054ec,%eax
  102dad:	83 e0 1f             	and    $0x1f,%eax
  102db0:	a2 ec 54 10 00       	mov    %al,0x1054ec
  102db5:	0f b6 05 ed 54 10 00 	movzbl 0x1054ed,%eax
  102dbc:	83 e0 f0             	and    $0xfffffff0,%eax
  102dbf:	83 c8 0e             	or     $0xe,%eax
  102dc2:	a2 ed 54 10 00       	mov    %al,0x1054ed
  102dc7:	0f b6 05 ed 54 10 00 	movzbl 0x1054ed,%eax
  102dce:	83 e0 ef             	and    $0xffffffef,%eax
  102dd1:	a2 ed 54 10 00       	mov    %al,0x1054ed
  102dd6:	0f b6 05 ed 54 10 00 	movzbl 0x1054ed,%eax
  102ddd:	83 e0 9f             	and    $0xffffff9f,%eax
  102de0:	a2 ed 54 10 00       	mov    %al,0x1054ed
  102de5:	0f b6 05 ed 54 10 00 	movzbl 0x1054ed,%eax
  102dec:	83 c8 80             	or     $0xffffff80,%eax
  102def:	a2 ed 54 10 00       	mov    %al,0x1054ed
  102df4:	b8 5b 36 10 00       	mov    $0x10365b,%eax
  102df9:	c1 e8 10             	shr    $0x10,%eax
  102dfc:	66 a3 ee 54 10 00    	mov    %ax,0x1054ee
  102e02:	b8 64 36 10 00       	mov    $0x103664,%eax
  102e07:	66 a3 f0 54 10 00    	mov    %ax,0x1054f0
  102e0d:	66 c7 05 f2 54 10 00 	movw   $0x8,0x1054f2
  102e14:	08 00 
  102e16:	0f b6 05 f4 54 10 00 	movzbl 0x1054f4,%eax
  102e1d:	83 e0 e0             	and    $0xffffffe0,%eax
  102e20:	a2 f4 54 10 00       	mov    %al,0x1054f4
  102e25:	0f b6 05 f4 54 10 00 	movzbl 0x1054f4,%eax
  102e2c:	83 e0 1f             	and    $0x1f,%eax
  102e2f:	a2 f4 54 10 00       	mov    %al,0x1054f4
  102e34:	0f b6 05 f5 54 10 00 	movzbl 0x1054f5,%eax
  102e3b:	83 e0 f0             	and    $0xfffffff0,%eax
  102e3e:	83 c8 0e             	or     $0xe,%eax
  102e41:	a2 f5 54 10 00       	mov    %al,0x1054f5
  102e46:	0f b6 05 f5 54 10 00 	movzbl 0x1054f5,%eax
  102e4d:	83 e0 ef             	and    $0xffffffef,%eax
  102e50:	a2 f5 54 10 00       	mov    %al,0x1054f5
  102e55:	0f b6 05 f5 54 10 00 	movzbl 0x1054f5,%eax
  102e5c:	83 e0 9f             	and    $0xffffff9f,%eax
  102e5f:	a2 f5 54 10 00       	mov    %al,0x1054f5
  102e64:	0f b6 05 f5 54 10 00 	movzbl 0x1054f5,%eax
  102e6b:	83 c8 80             	or     $0xffffff80,%eax
  102e6e:	a2 f5 54 10 00       	mov    %al,0x1054f5
  102e73:	b8 64 36 10 00       	mov    $0x103664,%eax
  102e78:	c1 e8 10             	shr    $0x10,%eax
  102e7b:	66 a3 f6 54 10 00    	mov    %ax,0x1054f6
  102e81:	b8 6f 36 10 00       	mov    $0x10366f,%eax
  102e86:	66 a3 f8 54 10 00    	mov    %ax,0x1054f8
  102e8c:	66 c7 05 fa 54 10 00 	movw   $0x8,0x1054fa
  102e93:	08 00 
  102e95:	0f b6 05 fc 54 10 00 	movzbl 0x1054fc,%eax
  102e9c:	83 e0 e0             	and    $0xffffffe0,%eax
  102e9f:	a2 fc 54 10 00       	mov    %al,0x1054fc
  102ea4:	0f b6 05 fc 54 10 00 	movzbl 0x1054fc,%eax
  102eab:	83 e0 1f             	and    $0x1f,%eax
  102eae:	a2 fc 54 10 00       	mov    %al,0x1054fc
  102eb3:	0f b6 05 fd 54 10 00 	movzbl 0x1054fd,%eax
  102eba:	83 e0 f0             	and    $0xfffffff0,%eax
  102ebd:	83 c8 0e             	or     $0xe,%eax
  102ec0:	a2 fd 54 10 00       	mov    %al,0x1054fd
  102ec5:	0f b6 05 fd 54 10 00 	movzbl 0x1054fd,%eax
  102ecc:	83 e0 ef             	and    $0xffffffef,%eax
  102ecf:	a2 fd 54 10 00       	mov    %al,0x1054fd
  102ed4:	0f b6 05 fd 54 10 00 	movzbl 0x1054fd,%eax
  102edb:	83 e0 9f             	and    $0xffffff9f,%eax
  102ede:	a2 fd 54 10 00       	mov    %al,0x1054fd
  102ee3:	0f b6 05 fd 54 10 00 	movzbl 0x1054fd,%eax
  102eea:	83 c8 80             	or     $0xffffff80,%eax
  102eed:	a2 fd 54 10 00       	mov    %al,0x1054fd
  102ef2:	b8 6f 36 10 00       	mov    $0x10366f,%eax
  102ef7:	c1 e8 10             	shr    $0x10,%eax
  102efa:	66 a3 fe 54 10 00    	mov    %ax,0x1054fe
  102f00:	b8 7a 36 10 00       	mov    $0x10367a,%eax
  102f05:	66 a3 00 55 10 00    	mov    %ax,0x105500
  102f0b:	66 c7 05 02 55 10 00 	movw   $0x8,0x105502
  102f12:	08 00 
  102f14:	0f b6 05 04 55 10 00 	movzbl 0x105504,%eax
  102f1b:	83 e0 e0             	and    $0xffffffe0,%eax
  102f1e:	a2 04 55 10 00       	mov    %al,0x105504
  102f23:	0f b6 05 04 55 10 00 	movzbl 0x105504,%eax
  102f2a:	83 e0 1f             	and    $0x1f,%eax
  102f2d:	a2 04 55 10 00       	mov    %al,0x105504
  102f32:	0f b6 05 05 55 10 00 	movzbl 0x105505,%eax
  102f39:	83 e0 f0             	and    $0xfffffff0,%eax
  102f3c:	83 c8 0e             	or     $0xe,%eax
  102f3f:	a2 05 55 10 00       	mov    %al,0x105505
  102f44:	0f b6 05 05 55 10 00 	movzbl 0x105505,%eax
  102f4b:	83 e0 ef             	and    $0xffffffef,%eax
  102f4e:	a2 05 55 10 00       	mov    %al,0x105505
  102f53:	0f b6 05 05 55 10 00 	movzbl 0x105505,%eax
  102f5a:	83 e0 9f             	and    $0xffffff9f,%eax
  102f5d:	a2 05 55 10 00       	mov    %al,0x105505
  102f62:	0f b6 05 05 55 10 00 	movzbl 0x105505,%eax
  102f69:	83 c8 80             	or     $0xffffff80,%eax
  102f6c:	a2 05 55 10 00       	mov    %al,0x105505
  102f71:	b8 7a 36 10 00       	mov    $0x10367a,%eax
  102f76:	c1 e8 10             	shr    $0x10,%eax
  102f79:	66 a3 06 55 10 00    	mov    %ax,0x105506
  102f7f:	b8 85 36 10 00       	mov    $0x103685,%eax
  102f84:	66 a3 08 55 10 00    	mov    %ax,0x105508
  102f8a:	66 c7 05 0a 55 10 00 	movw   $0x8,0x10550a
  102f91:	08 00 
  102f93:	0f b6 05 0c 55 10 00 	movzbl 0x10550c,%eax
  102f9a:	83 e0 e0             	and    $0xffffffe0,%eax
  102f9d:	a2 0c 55 10 00       	mov    %al,0x10550c
  102fa2:	0f b6 05 0c 55 10 00 	movzbl 0x10550c,%eax
  102fa9:	83 e0 1f             	and    $0x1f,%eax
  102fac:	a2 0c 55 10 00       	mov    %al,0x10550c
  102fb1:	0f b6 05 0d 55 10 00 	movzbl 0x10550d,%eax
  102fb8:	83 e0 f0             	and    $0xfffffff0,%eax
  102fbb:	83 c8 0e             	or     $0xe,%eax
  102fbe:	a2 0d 55 10 00       	mov    %al,0x10550d
  102fc3:	0f b6 05 0d 55 10 00 	movzbl 0x10550d,%eax
  102fca:	83 e0 ef             	and    $0xffffffef,%eax
  102fcd:	a2 0d 55 10 00       	mov    %al,0x10550d
  102fd2:	0f b6 05 0d 55 10 00 	movzbl 0x10550d,%eax
  102fd9:	83 e0 9f             	and    $0xffffff9f,%eax
  102fdc:	a2 0d 55 10 00       	mov    %al,0x10550d
  102fe1:	0f b6 05 0d 55 10 00 	movzbl 0x10550d,%eax
  102fe8:	83 c8 80             	or     $0xffffff80,%eax
  102feb:	a2 0d 55 10 00       	mov    %al,0x10550d
  102ff0:	b8 85 36 10 00       	mov    $0x103685,%eax
  102ff5:	c1 e8 10             	shr    $0x10,%eax
  102ff8:	66 a3 0e 55 10 00    	mov    %ax,0x10550e
  102ffe:	b8 90 36 10 00       	mov    $0x103690,%eax
  103003:	66 a3 10 55 10 00    	mov    %ax,0x105510
  103009:	66 c7 05 12 55 10 00 	movw   $0x8,0x105512
  103010:	08 00 
  103012:	0f b6 05 14 55 10 00 	movzbl 0x105514,%eax
  103019:	83 e0 e0             	and    $0xffffffe0,%eax
  10301c:	a2 14 55 10 00       	mov    %al,0x105514
  103021:	0f b6 05 14 55 10 00 	movzbl 0x105514,%eax
  103028:	83 e0 1f             	and    $0x1f,%eax
  10302b:	a2 14 55 10 00       	mov    %al,0x105514
  103030:	0f b6 05 15 55 10 00 	movzbl 0x105515,%eax
  103037:	83 e0 f0             	and    $0xfffffff0,%eax
  10303a:	83 c8 0e             	or     $0xe,%eax
  10303d:	a2 15 55 10 00       	mov    %al,0x105515
  103042:	0f b6 05 15 55 10 00 	movzbl 0x105515,%eax
  103049:	83 e0 ef             	and    $0xffffffef,%eax
  10304c:	a2 15 55 10 00       	mov    %al,0x105515
  103051:	0f b6 05 15 55 10 00 	movzbl 0x105515,%eax
  103058:	83 e0 9f             	and    $0xffffff9f,%eax
  10305b:	a2 15 55 10 00       	mov    %al,0x105515
  103060:	0f b6 05 15 55 10 00 	movzbl 0x105515,%eax
  103067:	83 c8 80             	or     $0xffffff80,%eax
  10306a:	a2 15 55 10 00       	mov    %al,0x105515
  10306f:	b8 90 36 10 00       	mov    $0x103690,%eax
  103074:	c1 e8 10             	shr    $0x10,%eax
  103077:	66 a3 16 55 10 00    	mov    %ax,0x105516
  10307d:	b8 9b 36 10 00       	mov    $0x10369b,%eax
  103082:	66 a3 18 55 10 00    	mov    %ax,0x105518
  103088:	66 c7 05 1a 55 10 00 	movw   $0x8,0x10551a
  10308f:	08 00 
  103091:	0f b6 05 1c 55 10 00 	movzbl 0x10551c,%eax
  103098:	83 e0 e0             	and    $0xffffffe0,%eax
  10309b:	a2 1c 55 10 00       	mov    %al,0x10551c
  1030a0:	0f b6 05 1c 55 10 00 	movzbl 0x10551c,%eax
  1030a7:	83 e0 1f             	and    $0x1f,%eax
  1030aa:	a2 1c 55 10 00       	mov    %al,0x10551c
  1030af:	0f b6 05 1d 55 10 00 	movzbl 0x10551d,%eax
  1030b6:	83 e0 f0             	and    $0xfffffff0,%eax
  1030b9:	83 c8 0e             	or     $0xe,%eax
  1030bc:	a2 1d 55 10 00       	mov    %al,0x10551d
  1030c1:	0f b6 05 1d 55 10 00 	movzbl 0x10551d,%eax
  1030c8:	83 e0 ef             	and    $0xffffffef,%eax
  1030cb:	a2 1d 55 10 00       	mov    %al,0x10551d
  1030d0:	0f b6 05 1d 55 10 00 	movzbl 0x10551d,%eax
  1030d7:	83 e0 9f             	and    $0xffffff9f,%eax
  1030da:	a2 1d 55 10 00       	mov    %al,0x10551d
  1030df:	0f b6 05 1d 55 10 00 	movzbl 0x10551d,%eax
  1030e6:	83 c8 80             	or     $0xffffff80,%eax
  1030e9:	a2 1d 55 10 00       	mov    %al,0x10551d
  1030ee:	b8 9b 36 10 00       	mov    $0x10369b,%eax
  1030f3:	c1 e8 10             	shr    $0x10,%eax
  1030f6:	66 a3 1e 55 10 00    	mov    %ax,0x10551e
  1030fc:	b8 a6 36 10 00       	mov    $0x1036a6,%eax
  103101:	66 a3 20 55 10 00    	mov    %ax,0x105520
  103107:	66 c7 05 22 55 10 00 	movw   $0x8,0x105522
  10310e:	08 00 
  103110:	0f b6 05 24 55 10 00 	movzbl 0x105524,%eax
  103117:	83 e0 e0             	and    $0xffffffe0,%eax
  10311a:	a2 24 55 10 00       	mov    %al,0x105524
  10311f:	0f b6 05 24 55 10 00 	movzbl 0x105524,%eax
  103126:	83 e0 1f             	and    $0x1f,%eax
  103129:	a2 24 55 10 00       	mov    %al,0x105524
  10312e:	0f b6 05 25 55 10 00 	movzbl 0x105525,%eax
  103135:	83 e0 f0             	and    $0xfffffff0,%eax
  103138:	83 c8 0e             	or     $0xe,%eax
  10313b:	a2 25 55 10 00       	mov    %al,0x105525
  103140:	0f b6 05 25 55 10 00 	movzbl 0x105525,%eax
  103147:	83 e0 ef             	and    $0xffffffef,%eax
  10314a:	a2 25 55 10 00       	mov    %al,0x105525
  10314f:	0f b6 05 25 55 10 00 	movzbl 0x105525,%eax
  103156:	83 e0 9f             	and    $0xffffff9f,%eax
  103159:	a2 25 55 10 00       	mov    %al,0x105525
  10315e:	0f b6 05 25 55 10 00 	movzbl 0x105525,%eax
  103165:	83 c8 80             	or     $0xffffff80,%eax
  103168:	a2 25 55 10 00       	mov    %al,0x105525
  10316d:	b8 a6 36 10 00       	mov    $0x1036a6,%eax
  103172:	c1 e8 10             	shr    $0x10,%eax
  103175:	66 a3 26 55 10 00    	mov    %ax,0x105526
  10317b:	b8 b1 36 10 00       	mov    $0x1036b1,%eax
  103180:	66 a3 28 55 10 00    	mov    %ax,0x105528
  103186:	66 c7 05 2a 55 10 00 	movw   $0x8,0x10552a
  10318d:	08 00 
  10318f:	0f b6 05 2c 55 10 00 	movzbl 0x10552c,%eax
  103196:	83 e0 e0             	and    $0xffffffe0,%eax
  103199:	a2 2c 55 10 00       	mov    %al,0x10552c
  10319e:	0f b6 05 2c 55 10 00 	movzbl 0x10552c,%eax
  1031a5:	83 e0 1f             	and    $0x1f,%eax
  1031a8:	a2 2c 55 10 00       	mov    %al,0x10552c
  1031ad:	0f b6 05 2d 55 10 00 	movzbl 0x10552d,%eax
  1031b4:	83 e0 f0             	and    $0xfffffff0,%eax
  1031b7:	83 c8 0e             	or     $0xe,%eax
  1031ba:	a2 2d 55 10 00       	mov    %al,0x10552d
  1031bf:	0f b6 05 2d 55 10 00 	movzbl 0x10552d,%eax
  1031c6:	83 e0 ef             	and    $0xffffffef,%eax
  1031c9:	a2 2d 55 10 00       	mov    %al,0x10552d
  1031ce:	0f b6 05 2d 55 10 00 	movzbl 0x10552d,%eax
  1031d5:	83 e0 9f             	and    $0xffffff9f,%eax
  1031d8:	a2 2d 55 10 00       	mov    %al,0x10552d
  1031dd:	0f b6 05 2d 55 10 00 	movzbl 0x10552d,%eax
  1031e4:	83 c8 80             	or     $0xffffff80,%eax
  1031e7:	a2 2d 55 10 00       	mov    %al,0x10552d
  1031ec:	b8 b1 36 10 00       	mov    $0x1036b1,%eax
  1031f1:	c1 e8 10             	shr    $0x10,%eax
  1031f4:	66 a3 2e 55 10 00    	mov    %ax,0x10552e
  1031fa:	b8 bc 36 10 00       	mov    $0x1036bc,%eax
  1031ff:	66 a3 30 55 10 00    	mov    %ax,0x105530
  103205:	66 c7 05 32 55 10 00 	movw   $0x8,0x105532
  10320c:	08 00 
  10320e:	0f b6 05 34 55 10 00 	movzbl 0x105534,%eax
  103215:	83 e0 e0             	and    $0xffffffe0,%eax
  103218:	a2 34 55 10 00       	mov    %al,0x105534
  10321d:	0f b6 05 34 55 10 00 	movzbl 0x105534,%eax
  103224:	83 e0 1f             	and    $0x1f,%eax
  103227:	a2 34 55 10 00       	mov    %al,0x105534
  10322c:	0f b6 05 35 55 10 00 	movzbl 0x105535,%eax
  103233:	83 e0 f0             	and    $0xfffffff0,%eax
  103236:	83 c8 0e             	or     $0xe,%eax
  103239:	a2 35 55 10 00       	mov    %al,0x105535
  10323e:	0f b6 05 35 55 10 00 	movzbl 0x105535,%eax
  103245:	83 e0 ef             	and    $0xffffffef,%eax
  103248:	a2 35 55 10 00       	mov    %al,0x105535
  10324d:	0f b6 05 35 55 10 00 	movzbl 0x105535,%eax
  103254:	83 e0 9f             	and    $0xffffff9f,%eax
  103257:	a2 35 55 10 00       	mov    %al,0x105535
  10325c:	0f b6 05 35 55 10 00 	movzbl 0x105535,%eax
  103263:	83 c8 80             	or     $0xffffff80,%eax
  103266:	a2 35 55 10 00       	mov    %al,0x105535
  10326b:	b8 bc 36 10 00       	mov    $0x1036bc,%eax
  103270:	c1 e8 10             	shr    $0x10,%eax
  103273:	66 a3 36 55 10 00    	mov    %ax,0x105536
  103279:	b8 c7 36 10 00       	mov    $0x1036c7,%eax
  10327e:	66 a3 38 55 10 00    	mov    %ax,0x105538
  103284:	66 c7 05 3a 55 10 00 	movw   $0x8,0x10553a
  10328b:	08 00 
  10328d:	0f b6 05 3c 55 10 00 	movzbl 0x10553c,%eax
  103294:	83 e0 e0             	and    $0xffffffe0,%eax
  103297:	a2 3c 55 10 00       	mov    %al,0x10553c
  10329c:	0f b6 05 3c 55 10 00 	movzbl 0x10553c,%eax
  1032a3:	83 e0 1f             	and    $0x1f,%eax
  1032a6:	a2 3c 55 10 00       	mov    %al,0x10553c
  1032ab:	0f b6 05 3d 55 10 00 	movzbl 0x10553d,%eax
  1032b2:	83 e0 f0             	and    $0xfffffff0,%eax
  1032b5:	83 c8 0e             	or     $0xe,%eax
  1032b8:	a2 3d 55 10 00       	mov    %al,0x10553d
  1032bd:	0f b6 05 3d 55 10 00 	movzbl 0x10553d,%eax
  1032c4:	83 e0 ef             	and    $0xffffffef,%eax
  1032c7:	a2 3d 55 10 00       	mov    %al,0x10553d
  1032cc:	0f b6 05 3d 55 10 00 	movzbl 0x10553d,%eax
  1032d3:	83 e0 9f             	and    $0xffffff9f,%eax
  1032d6:	a2 3d 55 10 00       	mov    %al,0x10553d
  1032db:	0f b6 05 3d 55 10 00 	movzbl 0x10553d,%eax
  1032e2:	83 c8 80             	or     $0xffffff80,%eax
  1032e5:	a2 3d 55 10 00       	mov    %al,0x10553d
  1032ea:	b8 c7 36 10 00       	mov    $0x1036c7,%eax
  1032ef:	c1 e8 10             	shr    $0x10,%eax
  1032f2:	66 a3 3e 55 10 00    	mov    %ax,0x10553e
  1032f8:	b8 d2 36 10 00       	mov    $0x1036d2,%eax
  1032fd:	66 a3 40 55 10 00    	mov    %ax,0x105540
  103303:	66 c7 05 42 55 10 00 	movw   $0x8,0x105542
  10330a:	08 00 
  10330c:	0f b6 05 44 55 10 00 	movzbl 0x105544,%eax
  103313:	83 e0 e0             	and    $0xffffffe0,%eax
  103316:	a2 44 55 10 00       	mov    %al,0x105544
  10331b:	0f b6 05 44 55 10 00 	movzbl 0x105544,%eax
  103322:	83 e0 1f             	and    $0x1f,%eax
  103325:	a2 44 55 10 00       	mov    %al,0x105544
  10332a:	0f b6 05 45 55 10 00 	movzbl 0x105545,%eax
  103331:	83 e0 f0             	and    $0xfffffff0,%eax
  103334:	83 c8 0e             	or     $0xe,%eax
  103337:	a2 45 55 10 00       	mov    %al,0x105545
  10333c:	0f b6 05 45 55 10 00 	movzbl 0x105545,%eax
  103343:	83 e0 ef             	and    $0xffffffef,%eax
  103346:	a2 45 55 10 00       	mov    %al,0x105545
  10334b:	0f b6 05 45 55 10 00 	movzbl 0x105545,%eax
  103352:	83 e0 9f             	and    $0xffffff9f,%eax
  103355:	a2 45 55 10 00       	mov    %al,0x105545
  10335a:	0f b6 05 45 55 10 00 	movzbl 0x105545,%eax
  103361:	83 c8 80             	or     $0xffffff80,%eax
  103364:	a2 45 55 10 00       	mov    %al,0x105545
  103369:	b8 d2 36 10 00       	mov    $0x1036d2,%eax
  10336e:	c1 e8 10             	shr    $0x10,%eax
  103371:	66 a3 46 55 10 00    	mov    %ax,0x105546
  103377:	b8 dd 36 10 00       	mov    $0x1036dd,%eax
  10337c:	66 a3 48 55 10 00    	mov    %ax,0x105548
  103382:	66 c7 05 4a 55 10 00 	movw   $0x8,0x10554a
  103389:	08 00 
  10338b:	0f b6 05 4c 55 10 00 	movzbl 0x10554c,%eax
  103392:	83 e0 e0             	and    $0xffffffe0,%eax
  103395:	a2 4c 55 10 00       	mov    %al,0x10554c
  10339a:	0f b6 05 4c 55 10 00 	movzbl 0x10554c,%eax
  1033a1:	83 e0 1f             	and    $0x1f,%eax
  1033a4:	a2 4c 55 10 00       	mov    %al,0x10554c
  1033a9:	0f b6 05 4d 55 10 00 	movzbl 0x10554d,%eax
  1033b0:	83 e0 f0             	and    $0xfffffff0,%eax
  1033b3:	83 c8 0e             	or     $0xe,%eax
  1033b6:	a2 4d 55 10 00       	mov    %al,0x10554d
  1033bb:	0f b6 05 4d 55 10 00 	movzbl 0x10554d,%eax
  1033c2:	83 e0 ef             	and    $0xffffffef,%eax
  1033c5:	a2 4d 55 10 00       	mov    %al,0x10554d
  1033ca:	0f b6 05 4d 55 10 00 	movzbl 0x10554d,%eax
  1033d1:	83 e0 9f             	and    $0xffffff9f,%eax
  1033d4:	a2 4d 55 10 00       	mov    %al,0x10554d
  1033d9:	0f b6 05 4d 55 10 00 	movzbl 0x10554d,%eax
  1033e0:	83 c8 80             	or     $0xffffff80,%eax
  1033e3:	a2 4d 55 10 00       	mov    %al,0x10554d
  1033e8:	b8 dd 36 10 00       	mov    $0x1036dd,%eax
  1033ed:	c1 e8 10             	shr    $0x10,%eax
  1033f0:	66 a3 4e 55 10 00    	mov    %ax,0x10554e
  1033f6:	b8 e8 36 10 00       	mov    $0x1036e8,%eax
  1033fb:	66 a3 50 55 10 00    	mov    %ax,0x105550
  103401:	66 c7 05 52 55 10 00 	movw   $0x8,0x105552
  103408:	08 00 
  10340a:	0f b6 05 54 55 10 00 	movzbl 0x105554,%eax
  103411:	83 e0 e0             	and    $0xffffffe0,%eax
  103414:	a2 54 55 10 00       	mov    %al,0x105554
  103419:	0f b6 05 54 55 10 00 	movzbl 0x105554,%eax
  103420:	83 e0 1f             	and    $0x1f,%eax
  103423:	a2 54 55 10 00       	mov    %al,0x105554
  103428:	0f b6 05 55 55 10 00 	movzbl 0x105555,%eax
  10342f:	83 e0 f0             	and    $0xfffffff0,%eax
  103432:	83 c8 0e             	or     $0xe,%eax
  103435:	a2 55 55 10 00       	mov    %al,0x105555
  10343a:	0f b6 05 55 55 10 00 	movzbl 0x105555,%eax
  103441:	83 e0 ef             	and    $0xffffffef,%eax
  103444:	a2 55 55 10 00       	mov    %al,0x105555
  103449:	0f b6 05 55 55 10 00 	movzbl 0x105555,%eax
  103450:	83 e0 9f             	and    $0xffffff9f,%eax
  103453:	a2 55 55 10 00       	mov    %al,0x105555
  103458:	0f b6 05 55 55 10 00 	movzbl 0x105555,%eax
  10345f:	83 c8 80             	or     $0xffffff80,%eax
  103462:	a2 55 55 10 00       	mov    %al,0x105555
  103467:	b8 e8 36 10 00       	mov    $0x1036e8,%eax
  10346c:	c1 e8 10             	shr    $0x10,%eax
  10346f:	66 a3 56 55 10 00    	mov    %ax,0x105556
  103475:	b8 f3 36 10 00       	mov    $0x1036f3,%eax
  10347a:	66 a3 58 55 10 00    	mov    %ax,0x105558
  103480:	66 c7 05 5a 55 10 00 	movw   $0x8,0x10555a
  103487:	08 00 
  103489:	0f b6 05 5c 55 10 00 	movzbl 0x10555c,%eax
  103490:	83 e0 e0             	and    $0xffffffe0,%eax
  103493:	a2 5c 55 10 00       	mov    %al,0x10555c
  103498:	0f b6 05 5c 55 10 00 	movzbl 0x10555c,%eax
  10349f:	83 e0 1f             	and    $0x1f,%eax
  1034a2:	a2 5c 55 10 00       	mov    %al,0x10555c
  1034a7:	0f b6 05 5d 55 10 00 	movzbl 0x10555d,%eax
  1034ae:	83 e0 f0             	and    $0xfffffff0,%eax
  1034b1:	83 c8 0e             	or     $0xe,%eax
  1034b4:	a2 5d 55 10 00       	mov    %al,0x10555d
  1034b9:	0f b6 05 5d 55 10 00 	movzbl 0x10555d,%eax
  1034c0:	83 e0 ef             	and    $0xffffffef,%eax
  1034c3:	a2 5d 55 10 00       	mov    %al,0x10555d
  1034c8:	0f b6 05 5d 55 10 00 	movzbl 0x10555d,%eax
  1034cf:	83 e0 9f             	and    $0xffffff9f,%eax
  1034d2:	a2 5d 55 10 00       	mov    %al,0x10555d
  1034d7:	0f b6 05 5d 55 10 00 	movzbl 0x10555d,%eax
  1034de:	83 c8 80             	or     $0xffffff80,%eax
  1034e1:	a2 5d 55 10 00       	mov    %al,0x10555d
  1034e6:	b8 f3 36 10 00       	mov    $0x1036f3,%eax
  1034eb:	c1 e8 10             	shr    $0x10,%eax
  1034ee:	66 a3 5e 55 10 00    	mov    %ax,0x10555e
  1034f4:	b8 fe 36 10 00       	mov    $0x1036fe,%eax
  1034f9:	66 a3 58 5c 10 00    	mov    %ax,0x105c58
  1034ff:	66 c7 05 5a 5c 10 00 	movw   $0x8,0x105c5a
  103506:	08 00 
  103508:	0f b6 05 5c 5c 10 00 	movzbl 0x105c5c,%eax
  10350f:	83 e0 e0             	and    $0xffffffe0,%eax
  103512:	a2 5c 5c 10 00       	mov    %al,0x105c5c
  103517:	0f b6 05 5c 5c 10 00 	movzbl 0x105c5c,%eax
  10351e:	83 e0 1f             	and    $0x1f,%eax
  103521:	a2 5c 5c 10 00       	mov    %al,0x105c5c
  103526:	0f b6 05 5d 5c 10 00 	movzbl 0x105c5d,%eax
  10352d:	83 e0 f0             	and    $0xfffffff0,%eax
  103530:	83 c8 0e             	or     $0xe,%eax
  103533:	a2 5d 5c 10 00       	mov    %al,0x105c5d
  103538:	0f b6 05 5d 5c 10 00 	movzbl 0x105c5d,%eax
  10353f:	83 e0 ef             	and    $0xffffffef,%eax
  103542:	a2 5d 5c 10 00       	mov    %al,0x105c5d
  103547:	0f b6 05 5d 5c 10 00 	movzbl 0x105c5d,%eax
  10354e:	83 e0 9f             	and    $0xffffff9f,%eax
  103551:	a2 5d 5c 10 00       	mov    %al,0x105c5d
  103556:	0f b6 05 5d 5c 10 00 	movzbl 0x105c5d,%eax
  10355d:	83 c8 80             	or     $0xffffff80,%eax
  103560:	a2 5d 5c 10 00       	mov    %al,0x105c5d
  103565:	b8 fe 36 10 00       	mov    $0x1036fe,%eax
  10356a:	c1 e8 10             	shr    $0x10,%eax
  10356d:	66 a3 5e 5c 10 00    	mov    %ax,0x105c5e
  103573:	68 00 01 00 00       	push   $0x100
  103578:	68 60 54 10 00       	push   $0x105460
  10357d:	e8 fc ee ff ff       	call   10247e <lidt>
  103582:	83 c4 08             	add    $0x8,%esp
  103585:	90                   	nop
  103586:	c9                   	leave  
  103587:	c3                   	ret    

00103588 <start>:
  103588:	fa                   	cli    
  103589:	bc 00 f0 10 00       	mov    $0x10f000,%esp
  10358e:	bd 00 00 00 00       	mov    $0x0,%ebp
  103593:	83 e4 f0             	and    $0xfffffff0,%esp
  103596:	89 1d a8 35 10 00    	mov    %ebx,0x1035a8
  10359c:	e8 5f da ff ff       	call   101000 <kern_entry>

001035a1 <stop>:
  1035a1:	f4                   	hlt    
  1035a2:	ff 25 a1 35 10 00    	jmp    *0x1035a1

001035a8 <glb_mboot_ptr>:
  1035a8:	00 00                	add    %al,(%eax)
	...

001035ac <isr0>:
  1035ac:	fa                   	cli    
  1035ad:	6a 00                	push   $0x0
  1035af:	6a 00                	push   $0x0
  1035b1:	ff 25 0c 37 10 00    	jmp    *0x10370c

001035b7 <isr1>:
  1035b7:	fa                   	cli    
  1035b8:	6a 00                	push   $0x0
  1035ba:	6a 01                	push   $0x1
  1035bc:	ff 25 0c 37 10 00    	jmp    *0x10370c

001035c2 <isr2>:
  1035c2:	fa                   	cli    
  1035c3:	6a 00                	push   $0x0
  1035c5:	6a 02                	push   $0x2
  1035c7:	ff 25 0c 37 10 00    	jmp    *0x10370c

001035cd <isr3>:
  1035cd:	fa                   	cli    
  1035ce:	6a 00                	push   $0x0
  1035d0:	6a 03                	push   $0x3
  1035d2:	ff 25 0c 37 10 00    	jmp    *0x10370c

001035d8 <isr4>:
  1035d8:	fa                   	cli    
  1035d9:	6a 00                	push   $0x0
  1035db:	6a 04                	push   $0x4
  1035dd:	ff 25 0c 37 10 00    	jmp    *0x10370c

001035e3 <isr5>:
  1035e3:	fa                   	cli    
  1035e4:	6a 00                	push   $0x0
  1035e6:	6a 05                	push   $0x5
  1035e8:	ff 25 0c 37 10 00    	jmp    *0x10370c

001035ee <isr6>:
  1035ee:	fa                   	cli    
  1035ef:	6a 00                	push   $0x0
  1035f1:	6a 06                	push   $0x6
  1035f3:	ff 25 0c 37 10 00    	jmp    *0x10370c

001035f9 <isr7>:
  1035f9:	fa                   	cli    
  1035fa:	6a 00                	push   $0x0
  1035fc:	6a 07                	push   $0x7
  1035fe:	ff 25 0c 37 10 00    	jmp    *0x10370c

00103604 <isr8>:
  103604:	fa                   	cli    
  103605:	6a 08                	push   $0x8
  103607:	ff 25 0c 37 10 00    	jmp    *0x10370c

0010360d <isr9>:
  10360d:	fa                   	cli    
  10360e:	6a 00                	push   $0x0
  103610:	6a 09                	push   $0x9
  103612:	ff 25 0c 37 10 00    	jmp    *0x10370c

00103618 <isr10>:
  103618:	fa                   	cli    
  103619:	6a 0a                	push   $0xa
  10361b:	ff 25 0c 37 10 00    	jmp    *0x10370c

00103621 <isr11>:
  103621:	fa                   	cli    
  103622:	6a 0b                	push   $0xb
  103624:	ff 25 0c 37 10 00    	jmp    *0x10370c

0010362a <isr12>:
  10362a:	fa                   	cli    
  10362b:	6a 0c                	push   $0xc
  10362d:	ff 25 0c 37 10 00    	jmp    *0x10370c

00103633 <isr13>:
  103633:	fa                   	cli    
  103634:	6a 0d                	push   $0xd
  103636:	ff 25 0c 37 10 00    	jmp    *0x10370c

0010363c <isr14>:
  10363c:	fa                   	cli    
  10363d:	6a 0e                	push   $0xe
  10363f:	ff 25 0c 37 10 00    	jmp    *0x10370c

00103645 <isr15>:
  103645:	fa                   	cli    
  103646:	6a 00                	push   $0x0
  103648:	6a 0f                	push   $0xf
  10364a:	ff 25 0c 37 10 00    	jmp    *0x10370c

00103650 <isr16>:
  103650:	fa                   	cli    
  103651:	6a 00                	push   $0x0
  103653:	6a 10                	push   $0x10
  103655:	ff 25 0c 37 10 00    	jmp    *0x10370c

0010365b <isr17>:
  10365b:	fa                   	cli    
  10365c:	6a 11                	push   $0x11
  10365e:	ff 25 0c 37 10 00    	jmp    *0x10370c

00103664 <isr18>:
  103664:	fa                   	cli    
  103665:	6a 00                	push   $0x0
  103667:	6a 12                	push   $0x12
  103669:	ff 25 0c 37 10 00    	jmp    *0x10370c

0010366f <isr19>:
  10366f:	fa                   	cli    
  103670:	6a 00                	push   $0x0
  103672:	6a 13                	push   $0x13
  103674:	ff 25 0c 37 10 00    	jmp    *0x10370c

0010367a <isr20>:
  10367a:	fa                   	cli    
  10367b:	6a 00                	push   $0x0
  10367d:	6a 14                	push   $0x14
  10367f:	ff 25 0c 37 10 00    	jmp    *0x10370c

00103685 <isr21>:
  103685:	fa                   	cli    
  103686:	6a 00                	push   $0x0
  103688:	6a 15                	push   $0x15
  10368a:	ff 25 0c 37 10 00    	jmp    *0x10370c

00103690 <isr22>:
  103690:	fa                   	cli    
  103691:	6a 00                	push   $0x0
  103693:	6a 16                	push   $0x16
  103695:	ff 25 0c 37 10 00    	jmp    *0x10370c

0010369b <isr23>:
  10369b:	fa                   	cli    
  10369c:	6a 00                	push   $0x0
  10369e:	6a 17                	push   $0x17
  1036a0:	ff 25 0c 37 10 00    	jmp    *0x10370c

001036a6 <isr24>:
  1036a6:	fa                   	cli    
  1036a7:	6a 00                	push   $0x0
  1036a9:	6a 18                	push   $0x18
  1036ab:	ff 25 0c 37 10 00    	jmp    *0x10370c

001036b1 <isr25>:
  1036b1:	fa                   	cli    
  1036b2:	6a 00                	push   $0x0
  1036b4:	6a 19                	push   $0x19
  1036b6:	ff 25 0c 37 10 00    	jmp    *0x10370c

001036bc <isr26>:
  1036bc:	fa                   	cli    
  1036bd:	6a 00                	push   $0x0
  1036bf:	6a 1a                	push   $0x1a
  1036c1:	ff 25 0c 37 10 00    	jmp    *0x10370c

001036c7 <isr27>:
  1036c7:	fa                   	cli    
  1036c8:	6a 00                	push   $0x0
  1036ca:	6a 1b                	push   $0x1b
  1036cc:	ff 25 0c 37 10 00    	jmp    *0x10370c

001036d2 <isr28>:
  1036d2:	fa                   	cli    
  1036d3:	6a 00                	push   $0x0
  1036d5:	6a 1c                	push   $0x1c
  1036d7:	ff 25 0c 37 10 00    	jmp    *0x10370c

001036dd <isr29>:
  1036dd:	fa                   	cli    
  1036de:	6a 00                	push   $0x0
  1036e0:	6a 1d                	push   $0x1d
  1036e2:	ff 25 0c 37 10 00    	jmp    *0x10370c

001036e8 <isr30>:
  1036e8:	fa                   	cli    
  1036e9:	6a 00                	push   $0x0
  1036eb:	6a 1e                	push   $0x1e
  1036ed:	ff 25 0c 37 10 00    	jmp    *0x10370c

001036f3 <isr31>:
  1036f3:	fa                   	cli    
  1036f4:	6a 00                	push   $0x0
  1036f6:	6a 1f                	push   $0x1f
  1036f8:	ff 25 0c 37 10 00    	jmp    *0x10370c

001036fe <isr255>:
  1036fe:	fa                   	cli    
  1036ff:	6a 00                	push   $0x0
  103701:	68 ff 00 00 00       	push   $0xff
  103706:	ff 25 0c 37 10 00    	jmp    *0x10370c

0010370c <isr_common_stub>:
  10370c:	60                   	pusha  
  10370d:	8c d8                	mov    %ds,%eax
  10370f:	50                   	push   %eax
  103710:	b8 10 00 00 00       	mov    $0x10,%eax
  103715:	8e d8                	mov    %eax,%ds
  103717:	8e c0                	mov    %eax,%es
  103719:	8e e0                	mov    %eax,%fs
  10371b:	8e e8                	mov    %eax,%gs
  10371d:	8e d0                	mov    %eax,%ss
  10371f:	54                   	push   %esp
  103720:	e8 89 ed ff ff       	call   1024ae <isr_handler>
  103725:	83 c4 04             	add    $0x4,%esp
  103728:	5b                   	pop    %ebx
  103729:	8e db                	mov    %ebx,%ds
  10372b:	8e c3                	mov    %ebx,%es
  10372d:	8e e3                	mov    %ebx,%fs
  10372f:	8e eb                	mov    %ebx,%gs
  103731:	8e d3                	mov    %ebx,%ss
  103733:	61                   	popa   
  103734:	83 c4 08             	add    $0x8,%esp
  103737:	cf                   	iret   
  103738:	66 90                	xchg   %ax,%ax
  10373a:	66 90                	xchg   %ax,%ax
  10373c:	66 90                	xchg   %ax,%ax
  10373e:	66 90                	xchg   %ax,%ax
  103740:	66 90                	xchg   %ax,%ax
  103742:	66 90                	xchg   %ax,%ax
  103744:	66 90                	xchg   %ax,%ax
  103746:	66 90                	xchg   %ax,%ax
  103748:	66 90                	xchg   %ax,%ax
  10374a:	66 90                	xchg   %ax,%ax
  10374c:	66 90                	xchg   %ax,%ax
  10374e:	66 90                	xchg   %ax,%ax
  103750:	66 90                	xchg   %ax,%ax
  103752:	66 90                	xchg   %ax,%ax
  103754:	66 90                	xchg   %ax,%ax
  103756:	66 90                	xchg   %ax,%ax
  103758:	66 90                	xchg   %ax,%ax
  10375a:	66 90                	xchg   %ax,%ax
  10375c:	66 90                	xchg   %ax,%ax
  10375e:	66 90                	xchg   %ax,%ax
  103760:	66 90                	xchg   %ax,%ax
  103762:	66 90                	xchg   %ax,%ax
  103764:	66 90                	xchg   %ax,%ax
  103766:	66 90                	xchg   %ax,%ax
  103768:	66 90                	xchg   %ax,%ax
  10376a:	66 90                	xchg   %ax,%ax
  10376c:	66 90                	xchg   %ax,%ax
  10376e:	66 90                	xchg   %ax,%ax
  103770:	66 90                	xchg   %ax,%ax
  103772:	66 90                	xchg   %ax,%ax
  103774:	66 90                	xchg   %ax,%ax
  103776:	66 90                	xchg   %ax,%ax
  103778:	66 90                	xchg   %ax,%ax
  10377a:	66 90                	xchg   %ax,%ax
  10377c:	66 90                	xchg   %ax,%ax
  10377e:	66 90                	xchg   %ax,%ax
  103780:	66 90                	xchg   %ax,%ax
  103782:	66 90                	xchg   %ax,%ax
  103784:	66 90                	xchg   %ax,%ax
  103786:	66 90                	xchg   %ax,%ax
  103788:	66 90                	xchg   %ax,%ax
  10378a:	66 90                	xchg   %ax,%ax
  10378c:	66 90                	xchg   %ax,%ax
  10378e:	66 90                	xchg   %ax,%ax
  103790:	66 90                	xchg   %ax,%ax
  103792:	66 90                	xchg   %ax,%ax
  103794:	66 90                	xchg   %ax,%ax
  103796:	66 90                	xchg   %ax,%ax
  103798:	66 90                	xchg   %ax,%ax
  10379a:	66 90                	xchg   %ax,%ax
  10379c:	66 90                	xchg   %ax,%ax
  10379e:	66 90                	xchg   %ax,%ax
  1037a0:	66 90                	xchg   %ax,%ax
  1037a2:	66 90                	xchg   %ax,%ax
  1037a4:	66 90                	xchg   %ax,%ax
  1037a6:	66 90                	xchg   %ax,%ax
  1037a8:	66 90                	xchg   %ax,%ax
  1037aa:	66 90                	xchg   %ax,%ax
  1037ac:	66 90                	xchg   %ax,%ax
  1037ae:	66 90                	xchg   %ax,%ax
  1037b0:	66 90                	xchg   %ax,%ax
  1037b2:	66 90                	xchg   %ax,%ax
  1037b4:	66 90                	xchg   %ax,%ax
  1037b6:	66 90                	xchg   %ax,%ax
  1037b8:	66 90                	xchg   %ax,%ax
  1037ba:	66 90                	xchg   %ax,%ax
  1037bc:	66 90                	xchg   %ax,%ax
  1037be:	66 90                	xchg   %ax,%ax
  1037c0:	66 90                	xchg   %ax,%ax
  1037c2:	66 90                	xchg   %ax,%ax
  1037c4:	66 90                	xchg   %ax,%ax
  1037c6:	66 90                	xchg   %ax,%ax
  1037c8:	66 90                	xchg   %ax,%ax
  1037ca:	66 90                	xchg   %ax,%ax
  1037cc:	66 90                	xchg   %ax,%ax
  1037ce:	66 90                	xchg   %ax,%ax
  1037d0:	66 90                	xchg   %ax,%ax
  1037d2:	66 90                	xchg   %ax,%ax
  1037d4:	66 90                	xchg   %ax,%ax
  1037d6:	66 90                	xchg   %ax,%ax
  1037d8:	66 90                	xchg   %ax,%ax
  1037da:	66 90                	xchg   %ax,%ax
  1037dc:	66 90                	xchg   %ax,%ax
  1037de:	66 90                	xchg   %ax,%ax
  1037e0:	66 90                	xchg   %ax,%ax
  1037e2:	66 90                	xchg   %ax,%ax
  1037e4:	66 90                	xchg   %ax,%ax
  1037e6:	66 90                	xchg   %ax,%ax
  1037e8:	66 90                	xchg   %ax,%ax
  1037ea:	66 90                	xchg   %ax,%ax
  1037ec:	66 90                	xchg   %ax,%ax
  1037ee:	66 90                	xchg   %ax,%ax
  1037f0:	66 90                	xchg   %ax,%ax
  1037f2:	66 90                	xchg   %ax,%ax
  1037f4:	66 90                	xchg   %ax,%ax
  1037f6:	66 90                	xchg   %ax,%ax
  1037f8:	66 90                	xchg   %ax,%ax
  1037fa:	66 90                	xchg   %ax,%ax
  1037fc:	66 90                	xchg   %ax,%ax
  1037fe:	66 90                	xchg   %ax,%ax
  103800:	66 90                	xchg   %ax,%ax
  103802:	66 90                	xchg   %ax,%ax
  103804:	66 90                	xchg   %ax,%ax
  103806:	66 90                	xchg   %ax,%ax
  103808:	66 90                	xchg   %ax,%ax
  10380a:	66 90                	xchg   %ax,%ax
  10380c:	66 90                	xchg   %ax,%ax
  10380e:	66 90                	xchg   %ax,%ax
  103810:	66 90                	xchg   %ax,%ax
  103812:	66 90                	xchg   %ax,%ax
  103814:	66 90                	xchg   %ax,%ax
  103816:	66 90                	xchg   %ax,%ax
  103818:	66 90                	xchg   %ax,%ax
  10381a:	66 90                	xchg   %ax,%ax
  10381c:	66 90                	xchg   %ax,%ax
  10381e:	66 90                	xchg   %ax,%ax
  103820:	66 90                	xchg   %ax,%ax
  103822:	66 90                	xchg   %ax,%ax
  103824:	66 90                	xchg   %ax,%ax
  103826:	66 90                	xchg   %ax,%ax
  103828:	66 90                	xchg   %ax,%ax
  10382a:	66 90                	xchg   %ax,%ax
  10382c:	66 90                	xchg   %ax,%ax
  10382e:	66 90                	xchg   %ax,%ax
  103830:	66 90                	xchg   %ax,%ax
  103832:	66 90                	xchg   %ax,%ax
  103834:	66 90                	xchg   %ax,%ax
  103836:	66 90                	xchg   %ax,%ax
  103838:	66 90                	xchg   %ax,%ax
  10383a:	66 90                	xchg   %ax,%ax
  10383c:	66 90                	xchg   %ax,%ax
  10383e:	66 90                	xchg   %ax,%ax
  103840:	66 90                	xchg   %ax,%ax
  103842:	66 90                	xchg   %ax,%ax
  103844:	66 90                	xchg   %ax,%ax
  103846:	66 90                	xchg   %ax,%ax
  103848:	66 90                	xchg   %ax,%ax
  10384a:	66 90                	xchg   %ax,%ax
  10384c:	66 90                	xchg   %ax,%ax
  10384e:	66 90                	xchg   %ax,%ax
  103850:	66 90                	xchg   %ax,%ax
  103852:	66 90                	xchg   %ax,%ax
  103854:	66 90                	xchg   %ax,%ax
  103856:	66 90                	xchg   %ax,%ax
  103858:	66 90                	xchg   %ax,%ax
  10385a:	66 90                	xchg   %ax,%ax
  10385c:	66 90                	xchg   %ax,%ax
  10385e:	66 90                	xchg   %ax,%ax
  103860:	66 90                	xchg   %ax,%ax
  103862:	66 90                	xchg   %ax,%ax
  103864:	66 90                	xchg   %ax,%ax
  103866:	66 90                	xchg   %ax,%ax
  103868:	66 90                	xchg   %ax,%ax
  10386a:	66 90                	xchg   %ax,%ax
  10386c:	66 90                	xchg   %ax,%ax
  10386e:	66 90                	xchg   %ax,%ax
  103870:	66 90                	xchg   %ax,%ax
  103872:	66 90                	xchg   %ax,%ax
  103874:	66 90                	xchg   %ax,%ax
  103876:	66 90                	xchg   %ax,%ax
  103878:	66 90                	xchg   %ax,%ax
  10387a:	66 90                	xchg   %ax,%ax
  10387c:	66 90                	xchg   %ax,%ax
  10387e:	66 90                	xchg   %ax,%ax
  103880:	66 90                	xchg   %ax,%ax
  103882:	66 90                	xchg   %ax,%ax
  103884:	66 90                	xchg   %ax,%ax
  103886:	66 90                	xchg   %ax,%ax
  103888:	66 90                	xchg   %ax,%ax
  10388a:	66 90                	xchg   %ax,%ax
  10388c:	66 90                	xchg   %ax,%ax
  10388e:	66 90                	xchg   %ax,%ax
  103890:	66 90                	xchg   %ax,%ax
  103892:	66 90                	xchg   %ax,%ax
  103894:	66 90                	xchg   %ax,%ax
  103896:	66 90                	xchg   %ax,%ax
  103898:	66 90                	xchg   %ax,%ax
  10389a:	66 90                	xchg   %ax,%ax
  10389c:	66 90                	xchg   %ax,%ax
  10389e:	66 90                	xchg   %ax,%ax
  1038a0:	66 90                	xchg   %ax,%ax
  1038a2:	66 90                	xchg   %ax,%ax
  1038a4:	66 90                	xchg   %ax,%ax
  1038a6:	66 90                	xchg   %ax,%ax
  1038a8:	66 90                	xchg   %ax,%ax
  1038aa:	66 90                	xchg   %ax,%ax
  1038ac:	66 90                	xchg   %ax,%ax
  1038ae:	66 90                	xchg   %ax,%ax
  1038b0:	66 90                	xchg   %ax,%ax
  1038b2:	66 90                	xchg   %ax,%ax
  1038b4:	66 90                	xchg   %ax,%ax
  1038b6:	66 90                	xchg   %ax,%ax
  1038b8:	66 90                	xchg   %ax,%ax
  1038ba:	66 90                	xchg   %ax,%ax
  1038bc:	66 90                	xchg   %ax,%ax
  1038be:	66 90                	xchg   %ax,%ax
  1038c0:	66 90                	xchg   %ax,%ax
  1038c2:	66 90                	xchg   %ax,%ax
  1038c4:	66 90                	xchg   %ax,%ax
  1038c6:	66 90                	xchg   %ax,%ax
  1038c8:	66 90                	xchg   %ax,%ax
  1038ca:	66 90                	xchg   %ax,%ax
  1038cc:	66 90                	xchg   %ax,%ax
  1038ce:	66 90                	xchg   %ax,%ax
  1038d0:	66 90                	xchg   %ax,%ax
  1038d2:	66 90                	xchg   %ax,%ax
  1038d4:	66 90                	xchg   %ax,%ax
  1038d6:	66 90                	xchg   %ax,%ax
  1038d8:	66 90                	xchg   %ax,%ax
  1038da:	66 90                	xchg   %ax,%ax
  1038dc:	66 90                	xchg   %ax,%ax
  1038de:	66 90                	xchg   %ax,%ax
  1038e0:	66 90                	xchg   %ax,%ax
  1038e2:	66 90                	xchg   %ax,%ax
  1038e4:	66 90                	xchg   %ax,%ax
  1038e6:	66 90                	xchg   %ax,%ax
  1038e8:	66 90                	xchg   %ax,%ax
  1038ea:	66 90                	xchg   %ax,%ax
  1038ec:	66 90                	xchg   %ax,%ax
  1038ee:	66 90                	xchg   %ax,%ax
  1038f0:	66 90                	xchg   %ax,%ax
  1038f2:	66 90                	xchg   %ax,%ax
  1038f4:	66 90                	xchg   %ax,%ax
  1038f6:	66 90                	xchg   %ax,%ax
  1038f8:	66 90                	xchg   %ax,%ax
  1038fa:	66 90                	xchg   %ax,%ax
  1038fc:	66 90                	xchg   %ax,%ax
  1038fe:	66 90                	xchg   %ax,%ax
  103900:	66 90                	xchg   %ax,%ax
  103902:	66 90                	xchg   %ax,%ax
  103904:	66 90                	xchg   %ax,%ax
  103906:	66 90                	xchg   %ax,%ax
  103908:	66 90                	xchg   %ax,%ax
  10390a:	66 90                	xchg   %ax,%ax
  10390c:	66 90                	xchg   %ax,%ax
  10390e:	66 90                	xchg   %ax,%ax
  103910:	66 90                	xchg   %ax,%ax
  103912:	66 90                	xchg   %ax,%ax
  103914:	66 90                	xchg   %ax,%ax
  103916:	66 90                	xchg   %ax,%ax
  103918:	66 90                	xchg   %ax,%ax
  10391a:	66 90                	xchg   %ax,%ax
  10391c:	66 90                	xchg   %ax,%ax
  10391e:	66 90                	xchg   %ax,%ax
  103920:	66 90                	xchg   %ax,%ax
  103922:	66 90                	xchg   %ax,%ax
  103924:	66 90                	xchg   %ax,%ax
  103926:	66 90                	xchg   %ax,%ax
  103928:	66 90                	xchg   %ax,%ax
  10392a:	66 90                	xchg   %ax,%ax
  10392c:	66 90                	xchg   %ax,%ax
  10392e:	66 90                	xchg   %ax,%ax
  103930:	66 90                	xchg   %ax,%ax
  103932:	66 90                	xchg   %ax,%ax
  103934:	66 90                	xchg   %ax,%ax
  103936:	66 90                	xchg   %ax,%ax
  103938:	66 90                	xchg   %ax,%ax
  10393a:	66 90                	xchg   %ax,%ax
  10393c:	66 90                	xchg   %ax,%ax
  10393e:	66 90                	xchg   %ax,%ax
  103940:	66 90                	xchg   %ax,%ax
  103942:	66 90                	xchg   %ax,%ax
  103944:	66 90                	xchg   %ax,%ax
  103946:	66 90                	xchg   %ax,%ax
  103948:	66 90                	xchg   %ax,%ax
  10394a:	66 90                	xchg   %ax,%ax
  10394c:	66 90                	xchg   %ax,%ax
  10394e:	66 90                	xchg   %ax,%ax
  103950:	66 90                	xchg   %ax,%ax
  103952:	66 90                	xchg   %ax,%ax
  103954:	66 90                	xchg   %ax,%ax
  103956:	66 90                	xchg   %ax,%ax
  103958:	66 90                	xchg   %ax,%ax
  10395a:	66 90                	xchg   %ax,%ax
  10395c:	66 90                	xchg   %ax,%ax
  10395e:	66 90                	xchg   %ax,%ax
  103960:	66 90                	xchg   %ax,%ax
  103962:	66 90                	xchg   %ax,%ax
  103964:	66 90                	xchg   %ax,%ax
  103966:	66 90                	xchg   %ax,%ax
  103968:	66 90                	xchg   %ax,%ax
  10396a:	66 90                	xchg   %ax,%ax
  10396c:	66 90                	xchg   %ax,%ax
  10396e:	66 90                	xchg   %ax,%ax
  103970:	66 90                	xchg   %ax,%ax
  103972:	66 90                	xchg   %ax,%ax
  103974:	66 90                	xchg   %ax,%ax
  103976:	66 90                	xchg   %ax,%ax
  103978:	66 90                	xchg   %ax,%ax
  10397a:	66 90                	xchg   %ax,%ax
  10397c:	66 90                	xchg   %ax,%ax
  10397e:	66 90                	xchg   %ax,%ax
  103980:	66 90                	xchg   %ax,%ax
  103982:	66 90                	xchg   %ax,%ax
  103984:	66 90                	xchg   %ax,%ax
  103986:	66 90                	xchg   %ax,%ax
  103988:	66 90                	xchg   %ax,%ax
  10398a:	66 90                	xchg   %ax,%ax
  10398c:	66 90                	xchg   %ax,%ax
  10398e:	66 90                	xchg   %ax,%ax
  103990:	66 90                	xchg   %ax,%ax
  103992:	66 90                	xchg   %ax,%ax
  103994:	66 90                	xchg   %ax,%ax
  103996:	66 90                	xchg   %ax,%ax
  103998:	66 90                	xchg   %ax,%ax
  10399a:	66 90                	xchg   %ax,%ax
  10399c:	66 90                	xchg   %ax,%ax
  10399e:	66 90                	xchg   %ax,%ax
  1039a0:	66 90                	xchg   %ax,%ax
  1039a2:	66 90                	xchg   %ax,%ax
  1039a4:	66 90                	xchg   %ax,%ax
  1039a6:	66 90                	xchg   %ax,%ax
  1039a8:	66 90                	xchg   %ax,%ax
  1039aa:	66 90                	xchg   %ax,%ax
  1039ac:	66 90                	xchg   %ax,%ax
  1039ae:	66 90                	xchg   %ax,%ax
  1039b0:	66 90                	xchg   %ax,%ax
  1039b2:	66 90                	xchg   %ax,%ax
  1039b4:	66 90                	xchg   %ax,%ax
  1039b6:	66 90                	xchg   %ax,%ax
  1039b8:	66 90                	xchg   %ax,%ax
  1039ba:	66 90                	xchg   %ax,%ax
  1039bc:	66 90                	xchg   %ax,%ax
  1039be:	66 90                	xchg   %ax,%ax
  1039c0:	66 90                	xchg   %ax,%ax
  1039c2:	66 90                	xchg   %ax,%ax
  1039c4:	66 90                	xchg   %ax,%ax
  1039c6:	66 90                	xchg   %ax,%ax
  1039c8:	66 90                	xchg   %ax,%ax
  1039ca:	66 90                	xchg   %ax,%ax
  1039cc:	66 90                	xchg   %ax,%ax
  1039ce:	66 90                	xchg   %ax,%ax
  1039d0:	66 90                	xchg   %ax,%ax
  1039d2:	66 90                	xchg   %ax,%ax
  1039d4:	66 90                	xchg   %ax,%ax
  1039d6:	66 90                	xchg   %ax,%ax
  1039d8:	66 90                	xchg   %ax,%ax
  1039da:	66 90                	xchg   %ax,%ax
  1039dc:	66 90                	xchg   %ax,%ax
  1039de:	66 90                	xchg   %ax,%ax
  1039e0:	66 90                	xchg   %ax,%ax
  1039e2:	66 90                	xchg   %ax,%ax
  1039e4:	66 90                	xchg   %ax,%ax
  1039e6:	66 90                	xchg   %ax,%ax
  1039e8:	66 90                	xchg   %ax,%ax
  1039ea:	66 90                	xchg   %ax,%ax
  1039ec:	66 90                	xchg   %ax,%ax
  1039ee:	66 90                	xchg   %ax,%ax
  1039f0:	66 90                	xchg   %ax,%ax
  1039f2:	66 90                	xchg   %ax,%ax
  1039f4:	66 90                	xchg   %ax,%ax
  1039f6:	66 90                	xchg   %ax,%ax
  1039f8:	66 90                	xchg   %ax,%ax
  1039fa:	66 90                	xchg   %ax,%ax
  1039fc:	66 90                	xchg   %ax,%ax
  1039fe:	66 90                	xchg   %ax,%ax
  103a00:	66 90                	xchg   %ax,%ax
  103a02:	66 90                	xchg   %ax,%ax
  103a04:	66 90                	xchg   %ax,%ax
  103a06:	66 90                	xchg   %ax,%ax
  103a08:	66 90                	xchg   %ax,%ax
  103a0a:	66 90                	xchg   %ax,%ax
  103a0c:	66 90                	xchg   %ax,%ax
  103a0e:	66 90                	xchg   %ax,%ax
  103a10:	66 90                	xchg   %ax,%ax
  103a12:	66 90                	xchg   %ax,%ax
  103a14:	66 90                	xchg   %ax,%ax
  103a16:	66 90                	xchg   %ax,%ax
  103a18:	66 90                	xchg   %ax,%ax
  103a1a:	66 90                	xchg   %ax,%ax
  103a1c:	66 90                	xchg   %ax,%ax
  103a1e:	66 90                	xchg   %ax,%ax
  103a20:	66 90                	xchg   %ax,%ax
  103a22:	66 90                	xchg   %ax,%ax
  103a24:	66 90                	xchg   %ax,%ax
  103a26:	66 90                	xchg   %ax,%ax
  103a28:	66 90                	xchg   %ax,%ax
  103a2a:	66 90                	xchg   %ax,%ax
  103a2c:	66 90                	xchg   %ax,%ax
  103a2e:	66 90                	xchg   %ax,%ax
  103a30:	66 90                	xchg   %ax,%ax
  103a32:	66 90                	xchg   %ax,%ax
  103a34:	66 90                	xchg   %ax,%ax
  103a36:	66 90                	xchg   %ax,%ax
  103a38:	66 90                	xchg   %ax,%ax
  103a3a:	66 90                	xchg   %ax,%ax
  103a3c:	66 90                	xchg   %ax,%ax
  103a3e:	66 90                	xchg   %ax,%ax
  103a40:	66 90                	xchg   %ax,%ax
  103a42:	66 90                	xchg   %ax,%ax
  103a44:	66 90                	xchg   %ax,%ax
  103a46:	66 90                	xchg   %ax,%ax
  103a48:	66 90                	xchg   %ax,%ax
  103a4a:	66 90                	xchg   %ax,%ax
  103a4c:	66 90                	xchg   %ax,%ax
  103a4e:	66 90                	xchg   %ax,%ax
  103a50:	66 90                	xchg   %ax,%ax
  103a52:	66 90                	xchg   %ax,%ax
  103a54:	66 90                	xchg   %ax,%ax
  103a56:	66 90                	xchg   %ax,%ax
  103a58:	66 90                	xchg   %ax,%ax
  103a5a:	66 90                	xchg   %ax,%ax
  103a5c:	66 90                	xchg   %ax,%ax
  103a5e:	66 90                	xchg   %ax,%ax
  103a60:	66 90                	xchg   %ax,%ax
  103a62:	66 90                	xchg   %ax,%ax
  103a64:	66 90                	xchg   %ax,%ax
  103a66:	66 90                	xchg   %ax,%ax
  103a68:	66 90                	xchg   %ax,%ax
  103a6a:	66 90                	xchg   %ax,%ax
  103a6c:	66 90                	xchg   %ax,%ax
  103a6e:	66 90                	xchg   %ax,%ax
  103a70:	66 90                	xchg   %ax,%ax
  103a72:	66 90                	xchg   %ax,%ax
  103a74:	66 90                	xchg   %ax,%ax
  103a76:	66 90                	xchg   %ax,%ax
  103a78:	66 90                	xchg   %ax,%ax
  103a7a:	66 90                	xchg   %ax,%ax
  103a7c:	66 90                	xchg   %ax,%ax
  103a7e:	66 90                	xchg   %ax,%ax
  103a80:	66 90                	xchg   %ax,%ax
  103a82:	66 90                	xchg   %ax,%ax
  103a84:	66 90                	xchg   %ax,%ax
  103a86:	66 90                	xchg   %ax,%ax
  103a88:	66 90                	xchg   %ax,%ax
  103a8a:	66 90                	xchg   %ax,%ax
  103a8c:	66 90                	xchg   %ax,%ax
  103a8e:	66 90                	xchg   %ax,%ax
  103a90:	66 90                	xchg   %ax,%ax
  103a92:	66 90                	xchg   %ax,%ax
  103a94:	66 90                	xchg   %ax,%ax
  103a96:	66 90                	xchg   %ax,%ax
  103a98:	66 90                	xchg   %ax,%ax
  103a9a:	66 90                	xchg   %ax,%ax
  103a9c:	66 90                	xchg   %ax,%ax
  103a9e:	66 90                	xchg   %ax,%ax
  103aa0:	66 90                	xchg   %ax,%ax
  103aa2:	66 90                	xchg   %ax,%ax
  103aa4:	66 90                	xchg   %ax,%ax
  103aa6:	66 90                	xchg   %ax,%ax
  103aa8:	66 90                	xchg   %ax,%ax
  103aaa:	66 90                	xchg   %ax,%ax
  103aac:	66 90                	xchg   %ax,%ax
  103aae:	66 90                	xchg   %ax,%ax
  103ab0:	66 90                	xchg   %ax,%ax
  103ab2:	66 90                	xchg   %ax,%ax
  103ab4:	66 90                	xchg   %ax,%ax
  103ab6:	66 90                	xchg   %ax,%ax
  103ab8:	66 90                	xchg   %ax,%ax
  103aba:	66 90                	xchg   %ax,%ax
  103abc:	66 90                	xchg   %ax,%ax
  103abe:	66 90                	xchg   %ax,%ax
  103ac0:	66 90                	xchg   %ax,%ax
  103ac2:	66 90                	xchg   %ax,%ax
  103ac4:	66 90                	xchg   %ax,%ax
  103ac6:	66 90                	xchg   %ax,%ax
  103ac8:	66 90                	xchg   %ax,%ax
  103aca:	66 90                	xchg   %ax,%ax
  103acc:	66 90                	xchg   %ax,%ax
  103ace:	66 90                	xchg   %ax,%ax
  103ad0:	66 90                	xchg   %ax,%ax
  103ad2:	66 90                	xchg   %ax,%ax
  103ad4:	66 90                	xchg   %ax,%ax
  103ad6:	66 90                	xchg   %ax,%ax
  103ad8:	66 90                	xchg   %ax,%ax
  103ada:	66 90                	xchg   %ax,%ax
  103adc:	66 90                	xchg   %ax,%ax
  103ade:	66 90                	xchg   %ax,%ax
  103ae0:	66 90                	xchg   %ax,%ax
  103ae2:	66 90                	xchg   %ax,%ax
  103ae4:	66 90                	xchg   %ax,%ax
  103ae6:	66 90                	xchg   %ax,%ax
  103ae8:	66 90                	xchg   %ax,%ax
  103aea:	66 90                	xchg   %ax,%ax
  103aec:	66 90                	xchg   %ax,%ax
  103aee:	66 90                	xchg   %ax,%ax
  103af0:	66 90                	xchg   %ax,%ax
  103af2:	66 90                	xchg   %ax,%ax
  103af4:	66 90                	xchg   %ax,%ax
  103af6:	66 90                	xchg   %ax,%ax
  103af8:	66 90                	xchg   %ax,%ax
  103afa:	66 90                	xchg   %ax,%ax
  103afc:	66 90                	xchg   %ax,%ax
  103afe:	66 90                	xchg   %ax,%ax
  103b00:	66 90                	xchg   %ax,%ax
  103b02:	66 90                	xchg   %ax,%ax
  103b04:	66 90                	xchg   %ax,%ax
  103b06:	66 90                	xchg   %ax,%ax
  103b08:	66 90                	xchg   %ax,%ax
  103b0a:	66 90                	xchg   %ax,%ax
  103b0c:	66 90                	xchg   %ax,%ax
  103b0e:	66 90                	xchg   %ax,%ax
  103b10:	66 90                	xchg   %ax,%ax
  103b12:	66 90                	xchg   %ax,%ax
  103b14:	66 90                	xchg   %ax,%ax
  103b16:	66 90                	xchg   %ax,%ax
  103b18:	66 90                	xchg   %ax,%ax
  103b1a:	66 90                	xchg   %ax,%ax
  103b1c:	66 90                	xchg   %ax,%ax
  103b1e:	66 90                	xchg   %ax,%ax
  103b20:	66 90                	xchg   %ax,%ax
  103b22:	66 90                	xchg   %ax,%ax
  103b24:	66 90                	xchg   %ax,%ax
  103b26:	66 90                	xchg   %ax,%ax
  103b28:	66 90                	xchg   %ax,%ax
  103b2a:	66 90                	xchg   %ax,%ax
  103b2c:	66 90                	xchg   %ax,%ax
  103b2e:	66 90                	xchg   %ax,%ax
  103b30:	66 90                	xchg   %ax,%ax
  103b32:	66 90                	xchg   %ax,%ax
  103b34:	66 90                	xchg   %ax,%ax
  103b36:	66 90                	xchg   %ax,%ax
  103b38:	66 90                	xchg   %ax,%ax
  103b3a:	66 90                	xchg   %ax,%ax
  103b3c:	66 90                	xchg   %ax,%ax
  103b3e:	66 90                	xchg   %ax,%ax
  103b40:	66 90                	xchg   %ax,%ax
  103b42:	66 90                	xchg   %ax,%ax
  103b44:	66 90                	xchg   %ax,%ax
  103b46:	66 90                	xchg   %ax,%ax
  103b48:	66 90                	xchg   %ax,%ax
  103b4a:	66 90                	xchg   %ax,%ax
  103b4c:	66 90                	xchg   %ax,%ax
  103b4e:	66 90                	xchg   %ax,%ax
  103b50:	66 90                	xchg   %ax,%ax
  103b52:	66 90                	xchg   %ax,%ax
  103b54:	66 90                	xchg   %ax,%ax
  103b56:	66 90                	xchg   %ax,%ax
  103b58:	66 90                	xchg   %ax,%ax
  103b5a:	66 90                	xchg   %ax,%ax
  103b5c:	66 90                	xchg   %ax,%ax
  103b5e:	66 90                	xchg   %ax,%ax
  103b60:	66 90                	xchg   %ax,%ax
  103b62:	66 90                	xchg   %ax,%ax
  103b64:	66 90                	xchg   %ax,%ax
  103b66:	66 90                	xchg   %ax,%ax
  103b68:	66 90                	xchg   %ax,%ax
  103b6a:	66 90                	xchg   %ax,%ax
  103b6c:	66 90                	xchg   %ax,%ax
  103b6e:	66 90                	xchg   %ax,%ax
  103b70:	66 90                	xchg   %ax,%ax
  103b72:	66 90                	xchg   %ax,%ax
  103b74:	66 90                	xchg   %ax,%ax
  103b76:	66 90                	xchg   %ax,%ax
  103b78:	66 90                	xchg   %ax,%ax
  103b7a:	66 90                	xchg   %ax,%ax
  103b7c:	66 90                	xchg   %ax,%ax
  103b7e:	66 90                	xchg   %ax,%ax
  103b80:	66 90                	xchg   %ax,%ax
  103b82:	66 90                	xchg   %ax,%ax
  103b84:	66 90                	xchg   %ax,%ax
  103b86:	66 90                	xchg   %ax,%ax
  103b88:	66 90                	xchg   %ax,%ax
  103b8a:	66 90                	xchg   %ax,%ax
  103b8c:	66 90                	xchg   %ax,%ax
  103b8e:	66 90                	xchg   %ax,%ax
  103b90:	66 90                	xchg   %ax,%ax
  103b92:	66 90                	xchg   %ax,%ax
  103b94:	66 90                	xchg   %ax,%ax
  103b96:	66 90                	xchg   %ax,%ax
  103b98:	66 90                	xchg   %ax,%ax
  103b9a:	66 90                	xchg   %ax,%ax
  103b9c:	66 90                	xchg   %ax,%ax
  103b9e:	66 90                	xchg   %ax,%ax
  103ba0:	66 90                	xchg   %ax,%ax
  103ba2:	66 90                	xchg   %ax,%ax
  103ba4:	66 90                	xchg   %ax,%ax
  103ba6:	66 90                	xchg   %ax,%ax
  103ba8:	66 90                	xchg   %ax,%ax
  103baa:	66 90                	xchg   %ax,%ax
  103bac:	66 90                	xchg   %ax,%ax
  103bae:	66 90                	xchg   %ax,%ax
  103bb0:	66 90                	xchg   %ax,%ax
  103bb2:	66 90                	xchg   %ax,%ax
  103bb4:	66 90                	xchg   %ax,%ax
  103bb6:	66 90                	xchg   %ax,%ax
  103bb8:	66 90                	xchg   %ax,%ax
  103bba:	66 90                	xchg   %ax,%ax
  103bbc:	66 90                	xchg   %ax,%ax
  103bbe:	66 90                	xchg   %ax,%ax
  103bc0:	66 90                	xchg   %ax,%ax
  103bc2:	66 90                	xchg   %ax,%ax
  103bc4:	66 90                	xchg   %ax,%ax
  103bc6:	66 90                	xchg   %ax,%ax
  103bc8:	66 90                	xchg   %ax,%ax
  103bca:	66 90                	xchg   %ax,%ax
  103bcc:	66 90                	xchg   %ax,%ax
  103bce:	66 90                	xchg   %ax,%ax
  103bd0:	66 90                	xchg   %ax,%ax
  103bd2:	66 90                	xchg   %ax,%ax
  103bd4:	66 90                	xchg   %ax,%ax
  103bd6:	66 90                	xchg   %ax,%ax
  103bd8:	66 90                	xchg   %ax,%ax
  103bda:	66 90                	xchg   %ax,%ax
  103bdc:	66 90                	xchg   %ax,%ax
  103bde:	66 90                	xchg   %ax,%ax
  103be0:	66 90                	xchg   %ax,%ax
  103be2:	66 90                	xchg   %ax,%ax
  103be4:	66 90                	xchg   %ax,%ax
  103be6:	66 90                	xchg   %ax,%ax
  103be8:	66 90                	xchg   %ax,%ax
  103bea:	66 90                	xchg   %ax,%ax
  103bec:	66 90                	xchg   %ax,%ax
  103bee:	66 90                	xchg   %ax,%ax
  103bf0:	66 90                	xchg   %ax,%ax
  103bf2:	66 90                	xchg   %ax,%ax
  103bf4:	66 90                	xchg   %ax,%ax
  103bf6:	66 90                	xchg   %ax,%ax
  103bf8:	66 90                	xchg   %ax,%ax
  103bfa:	66 90                	xchg   %ax,%ax
  103bfc:	66 90                	xchg   %ax,%ax
  103bfe:	66 90                	xchg   %ax,%ax
  103c00:	66 90                	xchg   %ax,%ax
  103c02:	66 90                	xchg   %ax,%ax
  103c04:	66 90                	xchg   %ax,%ax
  103c06:	66 90                	xchg   %ax,%ax
  103c08:	66 90                	xchg   %ax,%ax
  103c0a:	66 90                	xchg   %ax,%ax
  103c0c:	66 90                	xchg   %ax,%ax
  103c0e:	66 90                	xchg   %ax,%ax
  103c10:	66 90                	xchg   %ax,%ax
  103c12:	66 90                	xchg   %ax,%ax
  103c14:	66 90                	xchg   %ax,%ax
  103c16:	66 90                	xchg   %ax,%ax
  103c18:	66 90                	xchg   %ax,%ax
  103c1a:	66 90                	xchg   %ax,%ax
  103c1c:	66 90                	xchg   %ax,%ax
  103c1e:	66 90                	xchg   %ax,%ax
  103c20:	66 90                	xchg   %ax,%ax
  103c22:	66 90                	xchg   %ax,%ax
  103c24:	66 90                	xchg   %ax,%ax
  103c26:	66 90                	xchg   %ax,%ax
  103c28:	66 90                	xchg   %ax,%ax
  103c2a:	66 90                	xchg   %ax,%ax
  103c2c:	66 90                	xchg   %ax,%ax
  103c2e:	66 90                	xchg   %ax,%ax
  103c30:	66 90                	xchg   %ax,%ax
  103c32:	66 90                	xchg   %ax,%ax
  103c34:	66 90                	xchg   %ax,%ax
  103c36:	66 90                	xchg   %ax,%ax
  103c38:	66 90                	xchg   %ax,%ax
  103c3a:	66 90                	xchg   %ax,%ax
  103c3c:	66 90                	xchg   %ax,%ax
  103c3e:	66 90                	xchg   %ax,%ax
  103c40:	66 90                	xchg   %ax,%ax
  103c42:	66 90                	xchg   %ax,%ax
  103c44:	66 90                	xchg   %ax,%ax
  103c46:	66 90                	xchg   %ax,%ax
  103c48:	66 90                	xchg   %ax,%ax
  103c4a:	66 90                	xchg   %ax,%ax
  103c4c:	66 90                	xchg   %ax,%ax
  103c4e:	66 90                	xchg   %ax,%ax
  103c50:	66 90                	xchg   %ax,%ax
  103c52:	66 90                	xchg   %ax,%ax
  103c54:	66 90                	xchg   %ax,%ax
  103c56:	66 90                	xchg   %ax,%ax
  103c58:	66 90                	xchg   %ax,%ax
  103c5a:	66 90                	xchg   %ax,%ax
  103c5c:	66 90                	xchg   %ax,%ax
  103c5e:	66 90                	xchg   %ax,%ax
  103c60:	66 90                	xchg   %ax,%ax
  103c62:	66 90                	xchg   %ax,%ax
  103c64:	66 90                	xchg   %ax,%ax
  103c66:	66 90                	xchg   %ax,%ax
  103c68:	66 90                	xchg   %ax,%ax
  103c6a:	66 90                	xchg   %ax,%ax
  103c6c:	66 90                	xchg   %ax,%ax
  103c6e:	66 90                	xchg   %ax,%ax
  103c70:	66 90                	xchg   %ax,%ax
  103c72:	66 90                	xchg   %ax,%ax
  103c74:	66 90                	xchg   %ax,%ax
  103c76:	66 90                	xchg   %ax,%ax
  103c78:	66 90                	xchg   %ax,%ax
  103c7a:	66 90                	xchg   %ax,%ax
  103c7c:	66 90                	xchg   %ax,%ax
  103c7e:	66 90                	xchg   %ax,%ax
  103c80:	66 90                	xchg   %ax,%ax
  103c82:	66 90                	xchg   %ax,%ax
  103c84:	66 90                	xchg   %ax,%ax
  103c86:	66 90                	xchg   %ax,%ax
  103c88:	66 90                	xchg   %ax,%ax
  103c8a:	66 90                	xchg   %ax,%ax
  103c8c:	66 90                	xchg   %ax,%ax
  103c8e:	66 90                	xchg   %ax,%ax
  103c90:	66 90                	xchg   %ax,%ax
  103c92:	66 90                	xchg   %ax,%ax
  103c94:	66 90                	xchg   %ax,%ax
  103c96:	66 90                	xchg   %ax,%ax
  103c98:	66 90                	xchg   %ax,%ax
  103c9a:	66 90                	xchg   %ax,%ax
  103c9c:	66 90                	xchg   %ax,%ax
  103c9e:	66 90                	xchg   %ax,%ax
  103ca0:	66 90                	xchg   %ax,%ax
  103ca2:	66 90                	xchg   %ax,%ax
  103ca4:	66 90                	xchg   %ax,%ax
  103ca6:	66 90                	xchg   %ax,%ax
  103ca8:	66 90                	xchg   %ax,%ax
  103caa:	66 90                	xchg   %ax,%ax
  103cac:	66 90                	xchg   %ax,%ax
  103cae:	66 90                	xchg   %ax,%ax
  103cb0:	66 90                	xchg   %ax,%ax
  103cb2:	66 90                	xchg   %ax,%ax
  103cb4:	66 90                	xchg   %ax,%ax
  103cb6:	66 90                	xchg   %ax,%ax
  103cb8:	66 90                	xchg   %ax,%ax
  103cba:	66 90                	xchg   %ax,%ax
  103cbc:	66 90                	xchg   %ax,%ax
  103cbe:	66 90                	xchg   %ax,%ax
  103cc0:	66 90                	xchg   %ax,%ax
  103cc2:	66 90                	xchg   %ax,%ax
  103cc4:	66 90                	xchg   %ax,%ax
  103cc6:	66 90                	xchg   %ax,%ax
  103cc8:	66 90                	xchg   %ax,%ax
  103cca:	66 90                	xchg   %ax,%ax
  103ccc:	66 90                	xchg   %ax,%ax
  103cce:	66 90                	xchg   %ax,%ax
  103cd0:	66 90                	xchg   %ax,%ax
  103cd2:	66 90                	xchg   %ax,%ax
  103cd4:	66 90                	xchg   %ax,%ax
  103cd6:	66 90                	xchg   %ax,%ax
  103cd8:	66 90                	xchg   %ax,%ax
  103cda:	66 90                	xchg   %ax,%ax
  103cdc:	66 90                	xchg   %ax,%ax
  103cde:	66 90                	xchg   %ax,%ax
  103ce0:	66 90                	xchg   %ax,%ax
  103ce2:	66 90                	xchg   %ax,%ax
  103ce4:	66 90                	xchg   %ax,%ax
  103ce6:	66 90                	xchg   %ax,%ax
  103ce8:	66 90                	xchg   %ax,%ax
  103cea:	66 90                	xchg   %ax,%ax
  103cec:	66 90                	xchg   %ax,%ax
  103cee:	66 90                	xchg   %ax,%ax
  103cf0:	66 90                	xchg   %ax,%ax
  103cf2:	66 90                	xchg   %ax,%ax
  103cf4:	66 90                	xchg   %ax,%ax
  103cf6:	66 90                	xchg   %ax,%ax
  103cf8:	66 90                	xchg   %ax,%ax
  103cfa:	66 90                	xchg   %ax,%ax
  103cfc:	66 90                	xchg   %ax,%ax
  103cfe:	66 90                	xchg   %ax,%ax
  103d00:	66 90                	xchg   %ax,%ax
  103d02:	66 90                	xchg   %ax,%ax
  103d04:	66 90                	xchg   %ax,%ax
  103d06:	66 90                	xchg   %ax,%ax
  103d08:	66 90                	xchg   %ax,%ax
  103d0a:	66 90                	xchg   %ax,%ax
  103d0c:	66 90                	xchg   %ax,%ax
  103d0e:	66 90                	xchg   %ax,%ax
  103d10:	66 90                	xchg   %ax,%ax
  103d12:	66 90                	xchg   %ax,%ax
  103d14:	66 90                	xchg   %ax,%ax
  103d16:	66 90                	xchg   %ax,%ax
  103d18:	66 90                	xchg   %ax,%ax
  103d1a:	66 90                	xchg   %ax,%ax
  103d1c:	66 90                	xchg   %ax,%ax
  103d1e:	66 90                	xchg   %ax,%ax
  103d20:	66 90                	xchg   %ax,%ax
  103d22:	66 90                	xchg   %ax,%ax
  103d24:	66 90                	xchg   %ax,%ax
  103d26:	66 90                	xchg   %ax,%ax
  103d28:	66 90                	xchg   %ax,%ax
  103d2a:	66 90                	xchg   %ax,%ax
  103d2c:	66 90                	xchg   %ax,%ax
  103d2e:	66 90                	xchg   %ax,%ax
  103d30:	66 90                	xchg   %ax,%ax
  103d32:	66 90                	xchg   %ax,%ax
  103d34:	66 90                	xchg   %ax,%ax
  103d36:	66 90                	xchg   %ax,%ax
  103d38:	66 90                	xchg   %ax,%ax
  103d3a:	66 90                	xchg   %ax,%ax
  103d3c:	66 90                	xchg   %ax,%ax
  103d3e:	66 90                	xchg   %ax,%ax
  103d40:	66 90                	xchg   %ax,%ax
  103d42:	66 90                	xchg   %ax,%ax
  103d44:	66 90                	xchg   %ax,%ax
  103d46:	66 90                	xchg   %ax,%ax
  103d48:	66 90                	xchg   %ax,%ax
  103d4a:	66 90                	xchg   %ax,%ax
  103d4c:	66 90                	xchg   %ax,%ax
  103d4e:	66 90                	xchg   %ax,%ax
  103d50:	66 90                	xchg   %ax,%ax
  103d52:	66 90                	xchg   %ax,%ax
  103d54:	66 90                	xchg   %ax,%ax
  103d56:	66 90                	xchg   %ax,%ax
  103d58:	66 90                	xchg   %ax,%ax
  103d5a:	66 90                	xchg   %ax,%ax
  103d5c:	66 90                	xchg   %ax,%ax
  103d5e:	66 90                	xchg   %ax,%ax
  103d60:	66 90                	xchg   %ax,%ax
  103d62:	66 90                	xchg   %ax,%ax
  103d64:	66 90                	xchg   %ax,%ax
  103d66:	66 90                	xchg   %ax,%ax
  103d68:	66 90                	xchg   %ax,%ax
  103d6a:	66 90                	xchg   %ax,%ax
  103d6c:	66 90                	xchg   %ax,%ax
  103d6e:	66 90                	xchg   %ax,%ax
  103d70:	66 90                	xchg   %ax,%ax
  103d72:	66 90                	xchg   %ax,%ax
  103d74:	66 90                	xchg   %ax,%ax
  103d76:	66 90                	xchg   %ax,%ax
  103d78:	66 90                	xchg   %ax,%ax
  103d7a:	66 90                	xchg   %ax,%ax
  103d7c:	66 90                	xchg   %ax,%ax
  103d7e:	66 90                	xchg   %ax,%ax
  103d80:	66 90                	xchg   %ax,%ax
  103d82:	66 90                	xchg   %ax,%ax
  103d84:	66 90                	xchg   %ax,%ax
  103d86:	66 90                	xchg   %ax,%ax
  103d88:	66 90                	xchg   %ax,%ax
  103d8a:	66 90                	xchg   %ax,%ax
  103d8c:	66 90                	xchg   %ax,%ax
  103d8e:	66 90                	xchg   %ax,%ax
  103d90:	66 90                	xchg   %ax,%ax
  103d92:	66 90                	xchg   %ax,%ax
  103d94:	66 90                	xchg   %ax,%ax
  103d96:	66 90                	xchg   %ax,%ax
  103d98:	66 90                	xchg   %ax,%ax
  103d9a:	66 90                	xchg   %ax,%ax
  103d9c:	66 90                	xchg   %ax,%ax
  103d9e:	66 90                	xchg   %ax,%ax
  103da0:	66 90                	xchg   %ax,%ax
  103da2:	66 90                	xchg   %ax,%ax
  103da4:	66 90                	xchg   %ax,%ax
  103da6:	66 90                	xchg   %ax,%ax
  103da8:	66 90                	xchg   %ax,%ax
  103daa:	66 90                	xchg   %ax,%ax
  103dac:	66 90                	xchg   %ax,%ax
  103dae:	66 90                	xchg   %ax,%ax
  103db0:	66 90                	xchg   %ax,%ax
  103db2:	66 90                	xchg   %ax,%ax
  103db4:	66 90                	xchg   %ax,%ax
  103db6:	66 90                	xchg   %ax,%ax
  103db8:	66 90                	xchg   %ax,%ax
  103dba:	66 90                	xchg   %ax,%ax
  103dbc:	66 90                	xchg   %ax,%ax
  103dbe:	66 90                	xchg   %ax,%ax
  103dc0:	66 90                	xchg   %ax,%ax
  103dc2:	66 90                	xchg   %ax,%ax
  103dc4:	66 90                	xchg   %ax,%ax
  103dc6:	66 90                	xchg   %ax,%ax
  103dc8:	66 90                	xchg   %ax,%ax
  103dca:	66 90                	xchg   %ax,%ax
  103dcc:	66 90                	xchg   %ax,%ax
  103dce:	66 90                	xchg   %ax,%ax
  103dd0:	66 90                	xchg   %ax,%ax
  103dd2:	66 90                	xchg   %ax,%ax
  103dd4:	66 90                	xchg   %ax,%ax
  103dd6:	66 90                	xchg   %ax,%ax
  103dd8:	66 90                	xchg   %ax,%ax
  103dda:	66 90                	xchg   %ax,%ax
  103ddc:	66 90                	xchg   %ax,%ax
  103dde:	66 90                	xchg   %ax,%ax
  103de0:	66 90                	xchg   %ax,%ax
  103de2:	66 90                	xchg   %ax,%ax
  103de4:	66 90                	xchg   %ax,%ax
  103de6:	66 90                	xchg   %ax,%ax
  103de8:	66 90                	xchg   %ax,%ax
  103dea:	66 90                	xchg   %ax,%ax
  103dec:	66 90                	xchg   %ax,%ax
  103dee:	66 90                	xchg   %ax,%ax
  103df0:	66 90                	xchg   %ax,%ax
  103df2:	66 90                	xchg   %ax,%ax
  103df4:	66 90                	xchg   %ax,%ax
  103df6:	66 90                	xchg   %ax,%ax
  103df8:	66 90                	xchg   %ax,%ax
  103dfa:	66 90                	xchg   %ax,%ax
  103dfc:	66 90                	xchg   %ax,%ax
  103dfe:	66 90                	xchg   %ax,%ax
  103e00:	66 90                	xchg   %ax,%ax
  103e02:	66 90                	xchg   %ax,%ax
  103e04:	66 90                	xchg   %ax,%ax
  103e06:	66 90                	xchg   %ax,%ax
  103e08:	66 90                	xchg   %ax,%ax
  103e0a:	66 90                	xchg   %ax,%ax
  103e0c:	66 90                	xchg   %ax,%ax
  103e0e:	66 90                	xchg   %ax,%ax
  103e10:	66 90                	xchg   %ax,%ax
  103e12:	66 90                	xchg   %ax,%ax
  103e14:	66 90                	xchg   %ax,%ax
  103e16:	66 90                	xchg   %ax,%ax
  103e18:	66 90                	xchg   %ax,%ax
  103e1a:	66 90                	xchg   %ax,%ax
  103e1c:	66 90                	xchg   %ax,%ax
  103e1e:	66 90                	xchg   %ax,%ax
  103e20:	66 90                	xchg   %ax,%ax
  103e22:	66 90                	xchg   %ax,%ax
  103e24:	66 90                	xchg   %ax,%ax
  103e26:	66 90                	xchg   %ax,%ax
  103e28:	66 90                	xchg   %ax,%ax
  103e2a:	66 90                	xchg   %ax,%ax
  103e2c:	66 90                	xchg   %ax,%ax
  103e2e:	66 90                	xchg   %ax,%ax
  103e30:	66 90                	xchg   %ax,%ax
  103e32:	66 90                	xchg   %ax,%ax
  103e34:	66 90                	xchg   %ax,%ax
  103e36:	66 90                	xchg   %ax,%ax
  103e38:	66 90                	xchg   %ax,%ax
  103e3a:	66 90                	xchg   %ax,%ax
  103e3c:	66 90                	xchg   %ax,%ax
  103e3e:	66 90                	xchg   %ax,%ax
  103e40:	66 90                	xchg   %ax,%ax
  103e42:	66 90                	xchg   %ax,%ax
  103e44:	66 90                	xchg   %ax,%ax
  103e46:	66 90                	xchg   %ax,%ax
  103e48:	66 90                	xchg   %ax,%ax
  103e4a:	66 90                	xchg   %ax,%ax
  103e4c:	66 90                	xchg   %ax,%ax
  103e4e:	66 90                	xchg   %ax,%ax
  103e50:	66 90                	xchg   %ax,%ax
  103e52:	66 90                	xchg   %ax,%ax
  103e54:	66 90                	xchg   %ax,%ax
  103e56:	66 90                	xchg   %ax,%ax
  103e58:	66 90                	xchg   %ax,%ax
  103e5a:	66 90                	xchg   %ax,%ax
  103e5c:	66 90                	xchg   %ax,%ax
  103e5e:	66 90                	xchg   %ax,%ax
  103e60:	66 90                	xchg   %ax,%ax
  103e62:	66 90                	xchg   %ax,%ax
  103e64:	66 90                	xchg   %ax,%ax
  103e66:	66 90                	xchg   %ax,%ax
  103e68:	66 90                	xchg   %ax,%ax
  103e6a:	66 90                	xchg   %ax,%ax
  103e6c:	66 90                	xchg   %ax,%ax
  103e6e:	66 90                	xchg   %ax,%ax
  103e70:	66 90                	xchg   %ax,%ax
  103e72:	66 90                	xchg   %ax,%ax
  103e74:	66 90                	xchg   %ax,%ax
  103e76:	66 90                	xchg   %ax,%ax
  103e78:	66 90                	xchg   %ax,%ax
  103e7a:	66 90                	xchg   %ax,%ax
  103e7c:	66 90                	xchg   %ax,%ax
  103e7e:	66 90                	xchg   %ax,%ax
  103e80:	66 90                	xchg   %ax,%ax
  103e82:	66 90                	xchg   %ax,%ax
  103e84:	66 90                	xchg   %ax,%ax
  103e86:	66 90                	xchg   %ax,%ax
  103e88:	66 90                	xchg   %ax,%ax
  103e8a:	66 90                	xchg   %ax,%ax
  103e8c:	66 90                	xchg   %ax,%ax
  103e8e:	66 90                	xchg   %ax,%ax
  103e90:	66 90                	xchg   %ax,%ax
  103e92:	66 90                	xchg   %ax,%ax
  103e94:	66 90                	xchg   %ax,%ax
  103e96:	66 90                	xchg   %ax,%ax
  103e98:	66 90                	xchg   %ax,%ax
  103e9a:	66 90                	xchg   %ax,%ax
  103e9c:	66 90                	xchg   %ax,%ax
  103e9e:	66 90                	xchg   %ax,%ax
  103ea0:	66 90                	xchg   %ax,%ax
  103ea2:	66 90                	xchg   %ax,%ax
  103ea4:	66 90                	xchg   %ax,%ax
  103ea6:	66 90                	xchg   %ax,%ax
  103ea8:	66 90                	xchg   %ax,%ax
  103eaa:	66 90                	xchg   %ax,%ax
  103eac:	66 90                	xchg   %ax,%ax
  103eae:	66 90                	xchg   %ax,%ax
  103eb0:	66 90                	xchg   %ax,%ax
  103eb2:	66 90                	xchg   %ax,%ax
  103eb4:	66 90                	xchg   %ax,%ax
  103eb6:	66 90                	xchg   %ax,%ax
  103eb8:	66 90                	xchg   %ax,%ax
  103eba:	66 90                	xchg   %ax,%ax
  103ebc:	66 90                	xchg   %ax,%ax
  103ebe:	66 90                	xchg   %ax,%ax
  103ec0:	66 90                	xchg   %ax,%ax
  103ec2:	66 90                	xchg   %ax,%ax
  103ec4:	66 90                	xchg   %ax,%ax
  103ec6:	66 90                	xchg   %ax,%ax
  103ec8:	66 90                	xchg   %ax,%ax
  103eca:	66 90                	xchg   %ax,%ax
  103ecc:	66 90                	xchg   %ax,%ax
  103ece:	66 90                	xchg   %ax,%ax
  103ed0:	66 90                	xchg   %ax,%ax
  103ed2:	66 90                	xchg   %ax,%ax
  103ed4:	66 90                	xchg   %ax,%ax
  103ed6:	66 90                	xchg   %ax,%ax
  103ed8:	66 90                	xchg   %ax,%ax
  103eda:	66 90                	xchg   %ax,%ax
  103edc:	66 90                	xchg   %ax,%ax
  103ede:	66 90                	xchg   %ax,%ax
  103ee0:	66 90                	xchg   %ax,%ax
  103ee2:	66 90                	xchg   %ax,%ax
  103ee4:	66 90                	xchg   %ax,%ax
  103ee6:	66 90                	xchg   %ax,%ax
  103ee8:	66 90                	xchg   %ax,%ax
  103eea:	66 90                	xchg   %ax,%ax
  103eec:	66 90                	xchg   %ax,%ax
  103eee:	66 90                	xchg   %ax,%ax
  103ef0:	66 90                	xchg   %ax,%ax
  103ef2:	66 90                	xchg   %ax,%ax
  103ef4:	66 90                	xchg   %ax,%ax
  103ef6:	66 90                	xchg   %ax,%ax
  103ef8:	66 90                	xchg   %ax,%ax
  103efa:	66 90                	xchg   %ax,%ax
  103efc:	66 90                	xchg   %ax,%ax
  103efe:	66 90                	xchg   %ax,%ax
  103f00:	66 90                	xchg   %ax,%ax
  103f02:	66 90                	xchg   %ax,%ax
  103f04:	66 90                	xchg   %ax,%ax
  103f06:	66 90                	xchg   %ax,%ax
  103f08:	66 90                	xchg   %ax,%ax
  103f0a:	66 90                	xchg   %ax,%ax
  103f0c:	66 90                	xchg   %ax,%ax
  103f0e:	66 90                	xchg   %ax,%ax
  103f10:	66 90                	xchg   %ax,%ax
  103f12:	66 90                	xchg   %ax,%ax
  103f14:	66 90                	xchg   %ax,%ax
  103f16:	66 90                	xchg   %ax,%ax
  103f18:	66 90                	xchg   %ax,%ax
  103f1a:	66 90                	xchg   %ax,%ax
  103f1c:	66 90                	xchg   %ax,%ax
  103f1e:	66 90                	xchg   %ax,%ax
  103f20:	66 90                	xchg   %ax,%ax
  103f22:	66 90                	xchg   %ax,%ax
  103f24:	66 90                	xchg   %ax,%ax
  103f26:	66 90                	xchg   %ax,%ax
  103f28:	66 90                	xchg   %ax,%ax
  103f2a:	66 90                	xchg   %ax,%ax
  103f2c:	66 90                	xchg   %ax,%ax
  103f2e:	66 90                	xchg   %ax,%ax
  103f30:	66 90                	xchg   %ax,%ax
  103f32:	66 90                	xchg   %ax,%ax
  103f34:	66 90                	xchg   %ax,%ax
  103f36:	66 90                	xchg   %ax,%ax
  103f38:	66 90                	xchg   %ax,%ax
  103f3a:	66 90                	xchg   %ax,%ax
  103f3c:	66 90                	xchg   %ax,%ax
  103f3e:	66 90                	xchg   %ax,%ax
  103f40:	66 90                	xchg   %ax,%ax
  103f42:	66 90                	xchg   %ax,%ax
  103f44:	66 90                	xchg   %ax,%ax
  103f46:	66 90                	xchg   %ax,%ax
  103f48:	66 90                	xchg   %ax,%ax
  103f4a:	66 90                	xchg   %ax,%ax
  103f4c:	66 90                	xchg   %ax,%ax
  103f4e:	66 90                	xchg   %ax,%ax
  103f50:	66 90                	xchg   %ax,%ax
  103f52:	66 90                	xchg   %ax,%ax
  103f54:	66 90                	xchg   %ax,%ax
  103f56:	66 90                	xchg   %ax,%ax
  103f58:	66 90                	xchg   %ax,%ax
  103f5a:	66 90                	xchg   %ax,%ax
  103f5c:	66 90                	xchg   %ax,%ax
  103f5e:	66 90                	xchg   %ax,%ax
  103f60:	66 90                	xchg   %ax,%ax
  103f62:	66 90                	xchg   %ax,%ax
  103f64:	66 90                	xchg   %ax,%ax
  103f66:	66 90                	xchg   %ax,%ax
  103f68:	66 90                	xchg   %ax,%ax
  103f6a:	66 90                	xchg   %ax,%ax
  103f6c:	66 90                	xchg   %ax,%ax
  103f6e:	66 90                	xchg   %ax,%ax
  103f70:	66 90                	xchg   %ax,%ax
  103f72:	66 90                	xchg   %ax,%ax
  103f74:	66 90                	xchg   %ax,%ax
  103f76:	66 90                	xchg   %ax,%ax
  103f78:	66 90                	xchg   %ax,%ax
  103f7a:	66 90                	xchg   %ax,%ax
  103f7c:	66 90                	xchg   %ax,%ax
  103f7e:	66 90                	xchg   %ax,%ax
  103f80:	66 90                	xchg   %ax,%ax
  103f82:	66 90                	xchg   %ax,%ax
  103f84:	66 90                	xchg   %ax,%ax
  103f86:	66 90                	xchg   %ax,%ax
  103f88:	66 90                	xchg   %ax,%ax
  103f8a:	66 90                	xchg   %ax,%ax
  103f8c:	66 90                	xchg   %ax,%ax
  103f8e:	66 90                	xchg   %ax,%ax
  103f90:	66 90                	xchg   %ax,%ax
  103f92:	66 90                	xchg   %ax,%ax
  103f94:	66 90                	xchg   %ax,%ax
  103f96:	66 90                	xchg   %ax,%ax
  103f98:	66 90                	xchg   %ax,%ax
  103f9a:	66 90                	xchg   %ax,%ax
  103f9c:	66 90                	xchg   %ax,%ax
  103f9e:	66 90                	xchg   %ax,%ax
  103fa0:	66 90                	xchg   %ax,%ax
  103fa2:	66 90                	xchg   %ax,%ax
  103fa4:	66 90                	xchg   %ax,%ax
  103fa6:	66 90                	xchg   %ax,%ax
  103fa8:	66 90                	xchg   %ax,%ax
  103faa:	66 90                	xchg   %ax,%ax
  103fac:	66 90                	xchg   %ax,%ax
  103fae:	66 90                	xchg   %ax,%ax
  103fb0:	66 90                	xchg   %ax,%ax
  103fb2:	66 90                	xchg   %ax,%ax
  103fb4:	66 90                	xchg   %ax,%ax
  103fb6:	66 90                	xchg   %ax,%ax
  103fb8:	66 90                	xchg   %ax,%ax
  103fba:	66 90                	xchg   %ax,%ax
  103fbc:	66 90                	xchg   %ax,%ax
  103fbe:	66 90                	xchg   %ax,%ax
  103fc0:	66 90                	xchg   %ax,%ax
  103fc2:	66 90                	xchg   %ax,%ax
  103fc4:	66 90                	xchg   %ax,%ax
  103fc6:	66 90                	xchg   %ax,%ax
  103fc8:	66 90                	xchg   %ax,%ax
  103fca:	66 90                	xchg   %ax,%ax
  103fcc:	66 90                	xchg   %ax,%ax
  103fce:	66 90                	xchg   %ax,%ax
  103fd0:	66 90                	xchg   %ax,%ax
  103fd2:	66 90                	xchg   %ax,%ax
  103fd4:	66 90                	xchg   %ax,%ax
  103fd6:	66 90                	xchg   %ax,%ax
  103fd8:	66 90                	xchg   %ax,%ax
  103fda:	66 90                	xchg   %ax,%ax
  103fdc:	66 90                	xchg   %ax,%ax
  103fde:	66 90                	xchg   %ax,%ax
  103fe0:	66 90                	xchg   %ax,%ax
  103fe2:	66 90                	xchg   %ax,%ax
  103fe4:	66 90                	xchg   %ax,%ax
  103fe6:	66 90                	xchg   %ax,%ax
  103fe8:	66 90                	xchg   %ax,%ax
  103fea:	66 90                	xchg   %ax,%ax
  103fec:	66 90                	xchg   %ax,%ax
  103fee:	66 90                	xchg   %ax,%ax
  103ff0:	66 90                	xchg   %ax,%ax
  103ff2:	66 90                	xchg   %ax,%ax
  103ff4:	66 90                	xchg   %ax,%ax
  103ff6:	66 90                	xchg   %ax,%ax
  103ff8:	66 90                	xchg   %ax,%ax
  103ffa:	66 90                	xchg   %ax,%ax
  103ffc:	66 90                	xchg   %ax,%ax
  103ffe:	66 90                	xchg   %ax,%ax
